(lp0
V00
p1
aV000
p2
aV02rx
p3
aV08
p4
aV09
p5
aV10
p6
aV100
p7
aV1000
p8
aV101
p9
aV105
p10
aV107
p11
aV108
p12
aV10th
p13
aV11
p14
aV110
p15
aV114
p16
aV11th
p17
aV12
p18
aV120
p19
aV1200
p20
aV125
p21
aV12th
p22
aV12v
p23
aV12x12
p24
aV13
p25
aV130
p26
aV1300
p27
aV14
p28
aV140
p29
aV144
p30
aV148
p31
aV15
p32
aV150
p33
aV16
p34
aV160
p35
aV16gb
p36
aV17
p37
aV170
p38
aV175
p39
aV1793
p40
aV18
p41
aV180
p42
aV19
p43
aV1920
p44
aV1940
p45
aV1960
p46
aV1963
p47
aV1984
p48
aV1994
p49
aV1999
p50
aV1gb
p51
aV1st
p52
aV20
p53
aV200
p54
aV2000
p55
aV2004
p56
aV2007
p57
aV2008
p58
aV2009
p59
aV2010
p60
aV2011
p61
aV2012
p62
aV2013
p63
aV2014
p64
aV2015
p65
aV20th
p66
aV21
p67
aV21st
p68
aV22
p69
aV220
p70
aV225
p71
aV23
p72
aV230
p73
aV24
p74
aV240
p75
aV25
p76
aV250
p77
aV26
p78
aV26th
p79
aV27
p80
aV270
p81
aV28
p82
aV29
p83
aV299
p84
aV2d
p85
aV2gb
p86
aV2nd
p87
aV2s
p88
aV30
p89
aV300
p90
aV3000
p91
aV30x
p92
aV31
p93
aV32
p94
aV32gb
p95
aV33
p96
aV34
p97
aV35
p98
aV350
p99
aV36
p100
aV360
p101
aV37
p102
aV38
p103
aV39
p104
aV3d
p105
aV3g
p106
aV3rd
p107
aV3x3
p108
aV40
p109
aV400
p110
aV41
p111
aV417
p112
aV42
p113
aV43
p114
aV44
p115
aV45
p116
aV451
p117
aV46
p118
aV47
p119
aV48
p120
aV49
p121
aV4gb
p122
aV4k
p123
aV4th
p124
aV50
p125
aV500
p126
aV51
p127
aV52
p128
aV53
p129
aV54
p130
aV55
p131
aV56
p132
aV57
p133
aV58
p134
aV5k
p135
aV5th
p136
aV60
p137
aV600
p138
aV61
p139
aV62
p140
aV64
p141
aV65
p142
aV66
p143
aV67
p144
aV68
p145
aV69
p146
aV6th
p147
aV70
p148
aV700
p149
aV71
p150
aV72
p151
aV73
p152
aV74
p153
aV75
p154
aV76
p155
aV77
p156
aV78
p157
aV7th
p158
aV80
p159
aV800
p160
aV81
p161
aV8217
p162
aV83
p163
aV84
p164
aV85
p165
aV875
p166
aV89
p167
aV8ft
p168
aV8gb
p169
aV8th
p170
aV90
p171
aV900
p172
aV92
p173
aV93
p174
aV95
p175
aV96
p176
aV97
p177
aV98
p178
aV99
p179
aV9th
p180
aV9x12
p181
aVaa
p182
aVaaa
p183
aVab
p184
aVaba
p185
aVabacu
p186
aVabbi
p187
aVabc
p188
aVabil
p189
aVabilti
p190
aVabl
p191
aVaboard
p192
aVabraham
p193
aVabreast
p194
aVabroad
p195
aVabsenc
p196
aVabsent
p197
aVabsolut
p198
aVabsorb
p199
aVabstract
p200
aVabund
p201
aVabus
p202
aVac
p203
aVacadem
p204
aVacademi
p205
aVacademia
p206
aVacc
p207
aVacceler
p208
aVaccent
p209
aVaccept
p210
aVacces
p211
aVaccesori
p212
aVaccess
p213
aVaccessori
p214
aVaccid
p215
aVaccident
p216
aVaccommod
p217
aVaccomod
p218
aVaccompani
p219
aVaccomplish
p220
aVaccord
p221
aVaccount
p222
aVaccumul
p223
aVaccur
p224
aVaccuraci
p225
aVacer
p226
aVacheiv
p227
aVachiev
p228
aVacid
p229
aVacit
p230
aVacknowledg
p231
aVacorn
p232
aVacoust
p233
aVacquir
p234
aVacquisit
p235
aVacquist
p236
aVacr
p237
aVacross
p238
aVacryl
p239
aVact
p240
aVaction
p241
aVactiv
p242
aVactivboard
p243
aVactivexpress
p244
aVactivhub
p245
aVactivi
p246
aVactivist
p247
aVactivit
p248
aVactivot
p249
aVactivsl
p250
aVactivt
p251
aVacto
p252
aVactor
p253
aVactual
p254
aVactviti
p255
aVacut
p256
aVad
p257
aVadapt
p258
aVadaptor
p259
aVadd
p260
aVaddit
p261
aVadditon
p262
aVaddress
p263
aVaddtion
p264
aVadequ
p265
aVadhd
p266
aVadher
p267
aVadhes
p268
aVadjust
p269
aVadminist
p270
aVadministr
p271
aVadmir
p272
aVadmiss
p273
aVado
p274
aVadob
p275
aVadolesc
p276
aVadopt
p277
aVadult
p278
aVadulthood
p279
aVadvanc
p280
aVadvantag
p281
aVadventur
p282
aVadvers
p283
aVadvertis
p284
aVadvisor
p285
aVadvisori
p286
aVadvoc
p287
aVaerob
p288
aVaeronaut
p289
aVaesop
p290
aVaesthet
p291
aVaffair
p292
aVaffect
p293
aVaffili
p294
aVaffirm
p295
aVaffluent
p296
aVafford
p297
aVafraid
p298
aVafrica
p299
aVafrican
p300
aVafternoon
p301
aVafterschool
p302
aVagar
p303
aVage
p304
aVagenc
p305
aVagenda
p306
aVaggress
p307
aVagil
p308
aVago
p309
aVagre
p310
aVagreement
p311
aVagricultur
p312
aVagrisci
p313
aVahead
p314
aVaid
p315
aVaim
p316
aVair
p317
aVairbrush
p318
aVairfar
p319
aVairplay
p320
aVairport
p321
aVakj
p322
aVal
p323
aValabama
p324
aValarm
p325
aValaska
p326
aValbert
p327
aValbum
p328
aValchemist
p329
aValcohol
p330
aValert
p331
aValexi
p332
aValfr
p333
aValg
p334
aValgebra
p335
aValic
p336
aValign
p337
aValik
p338
aValin
p339
aValiv
p340
aValka
p341
aValkalin
p342
aVallegi
p343
aVallen
p344
aVallevi
p345
aVallig
p346
aValloc
p347
aVallow
p348
aValmanac
p349
aValmost
p350
aValon
p351
aValong
p352
aValot
p353
aValoud
p354
aValpha
p355
aValphabet
p356
aValreadi
p357
aValso
p358
aValtern
p359
aValthough
p360
aValtitud
p361
aValto
p362
aValuminum
p363
aValumni
p364
aValvarez
p365
aValvin
p366
aValway
p367
aVamaz
p368
aVamazon
p369
aVambassador
p370
aVamber
p371
aVamelia
p372
aVamerica
p373
aVamerican
p374
aVami
p375
aVamong
p376
aVamongst
p377
aVamoung
p378
aVamount
p379
aVamp
p380
aVamphibian
p381
aVampl
p382
aVamplif
p383
aVamplifi
p384
aVamulet
p385
aVamus
p386
aVanalog
p387
aVanalysi
p388
aVanalyt
p389
aVanalyz
p390
aVanatomi
p391
aVanchor
p392
aVancient
p393
aVancillari
p394
aVanderson
p395
aVandrew
p396
aVandroid
p397
aVangel
p398
aVanger
p399
aVangl
p400
aVangleg
p401
aVangri
p402
aVanim
p403
aVanimoto
p404
aVann
p405
aVanni
p406
aVannot
p407
aVannounc
p408
aVannual
p409
aVanonym
p410
aVanoth
p411
aVansd
p412
aVanswer
p413
aVant
p414
aVantholog
p415
aVanthropolog
p416
aVanti
p417
aVantibacteri
p418
aVantibulli
p419
aVanticip
p420
aVantigon
p421
aVantiqu
p422
aVantonym
p423
aVanxieti
p424
aVanxiou
p425
aVanymor
p426
aVanyon
p427
aVanyth
p428
aVanytim
p429
aVanywher
p430
aVap
p431
aVapart
p432
aVape
p433
aVapp
p434
aVappalachian
p435
aVapparatu
p436
aVappeal
p437
aVappear
p438
aVappetit
p439
aVappl
p440
aVapplecar
p441
aVappletv
p442
aVappli
p443
aVapplianc
p444
aVapplic
p445
aVappreci
p446
aVapproach
p447
aVappropi
p448
aVappropri
p449
aVapprov
p450
aVapprox
p451
aVapproxim
p452
aVapril
p453
aVapron
p454
aVaptitud
p455
aVaquacultur
p456
aVaquarium
p457
aVaquat
p458
aVaquir
p459
aVaquisit
p460
aVar
p461
aVarcheolog
p462
aVarcheri
p463
aVarchitect
p464
aVarchitectur
p465
aVarchiv
p466
aVarctic
p467
aVarduino
p468
aVarea
p469
aVaren
p470
aVargu
p471
aVargument
p472
aVarithmet
p473
aVarizona
p474
aVarm
p475
aVarmband
p476
aVarmor
p477
aVarmstrong
p478
aVarnold
p479
aVaround
p480
aVarrang
p481
aVarray
p482
aVarriv
p483
aVarrow
p484
aVart
p485
aVartemi
p486
aVarthur
p487
aVarticl
p488
aVarticul
p489
aVartifact
p490
aVartifici
p491
aVartist
p492
aVartsonia
p493
aVartwork
p494
aVasap
p495
aVasher
p496
aVasia
p497
aVasian
p498
aVask
p499
aVasl
p500
aVaspect
p501
aVasperg
p502
aVaspir
p503
aVaspx
p504
aVassassin
p505
aVassembl
p506
aVasses
p507
aVassess
p508
aVasset
p509
aVassign
p510
aVassist
p511
aVassit
p512
aVassoci
p513
aVassort
p514
aVassur
p515
aVasthma
p516
aVastronaut
p517
aVastronomi
p518
aVasu
p519
aVathlet
p520
aVatla
p521
aVatlant
p522
aVatlas
p523
aVatmospher
p524
aVatom
p525
aVatroc
p526
aVattach
p527
aVattack
p528
aVattain
p529
aVattempt
p530
aVattend
p531
aVattent
p532
aVattir
p533
aVattitud
p534
aVattract
p535
aVattribut
p536
aVauction
p537
aVaudibl
p538
aVaudienc
p539
aVaudio
p540
aVaudiobook
p541
aVaudiovisu
p542
aVaudit
p543
aVauditori
p544
aVauditorium
p545
aVaudubon
p546
aVaugment
p547
aVaugust
p548
aVaulair
p549
aVaurasma
p550
aVaussi
p551
aVaustin
p552
aVauthent
p553
aVauthor
p554
aVautism
p555
aVautist
p556
aVautobiograph
p557
aVautobiographi
p558
aVautoharp
p559
aVautomat
p560
aVautomot
p561
aVav
p562
aVavail
p563
aVavenu
p564
aVaverag
p565
aVaveri
p566
aVavervis
p567
aVavi
p568
aVaviat
p569
aVavid
p570
aVavoid
p571
aVaw
p572
aVawaken
p573
aVawar
p574
aVaward
p575
aVaway
p576
aVawe
p577
aVawesom
p578
aVaxi
p579
aVaxl
p580
aVayp
p581
aVaztec
p582
aVba
p583
aVbabi
p584
aVbabymous
p585
aVbaccalaur
p586
aVbach
p587
aVback
p588
aVbackboard
p589
aVbackdrop
p590
aVbackground
p591
aVbackjack
p592
aVbackpack
p593
aVbackpatt
p594
aVbackyard
p595
aVbacteri
p596
aVbacteria
p597
aVbad
p598
aVbadg
p599
aVbadli
p600
aVbadminton
p601
aVbag
p602
aVbaggi
p603
aVbailey
p604
aVbake
p605
aVbakewar
p606
aVbalanc
p607
aVball
p608
aVballerina
p609
aVballet
p610
aVballist
p611
aVballoon
p612
aVballroom
p613
aVbalsa
p614
aVbaltimor
p615
aVbamboo
p616
aVband
p617
aVbang
p618
aVbank
p619
aVbanker
p620
aVbanner
p621
aVbar
p622
aVbarack
p623
aVbarbara
p624
aVbarbel
p625
aVbarcod
p626
aVbard
p627
aVbare
p628
aVbargain
p629
aVbariton
p630
aVbarn
p631
aVbaromet
p632
aVbarr
p633
aVbarrel
p634
aVbarrier
p635
aVbarron
p636
aVbarrow
p637
aVbartoletti
p638
aVbase
p639
aVbasebal
p640
aVbasi
p641
aVbasic
p642
aVbasil
p643
aVbasket
p644
aVbasketbal
p645
aVbasketri
p646
aVbass
p647
aVbassoon
p648
aVbat
p649
aVbath
p650
aVbathroom
p651
aVbatik
p652
aVbatman
p653
aVbatter
p654
aVbatteri
p655
aVbattl
p656
aVbattleship
p657
aVbay
p658
aVbayou
p659
aVbb
p660
aVbe
p661
aVbeach
p662
aVbead
p663
aVbeah
p664
aVbeaker
p665
aVbeam
p666
aVbean
p667
aVbeanbag
p668
aVbeani
p669
aVbear
p670
aVbeast
p671
aVbeat
p672
aVbeauti
p673
aVbeautif
p674
aVbeautifi
p675
aVbeaver
p676
aVbecam
p677
aVbecasu
p678
aVbecom
p679
aVbecuas
p680
aVbed
p681
aVbedelia
p682
aVbedtim
p683
aVbee
p684
aVbeethoven
p685
aVbeetl
p686
aVbeg
p687
aVbegan
p688
aVbegin
p689
aVbeginn
p690
aVbegun
p691
aVbehav
p692
aVbehavior
p693
aVbehaviour
p694
aVbehind
p695
aVbeij
p696
aVbeleiv
p697
aVbelief
p698
aVbeliev
p699
aVbell
p700
aVbelli
p701
aVbelong
p702
aVbelt
p703
aVben
p704
aVbench
p705
aVbenchmark
p706
aVbend
p707
aVbenedict
p708
aVbenefici
p709
aVbenefit
p710
aVbenifit
p711
aVbenjamin
p712
aVbenton
p713
aVbeowulf
p714
aVberenstain
p715
aVbernard
p716
aVbesid
p717
aVbest
p718
aVbestsel
p719
aVbetsi
p720
aVbetter
p721
aVbeverag
p722
aVbeverli
p723
aVbeyond
p724
aVbfg
p725
aVbi
p726
aVbibl
p727
aVbicycl
p728
aVbig
p729
aVbigger
p730
aVbiggest
p731
aVbike
p732
aVbilingu
p733
aVbiliter
p734
aVbill
p735
aVbilli
p736
aVbin
p737
aVbind
p738
aVbinder
p739
aVbingo
p740
aVbinocular
p741
aVbio
p742
aVbiodiesel
p743
aVbiodivers
p744
aVbiograph
p745
aVbiographi
p746
aVbiolog
p747
aVbiom
p748
aVbiomolecul
p749
aVbiotechnolog
p750
aVbirch
p751
aVbird
p752
aVbirmingham
p753
aVbirthday
p754
aVbiscuit
p755
aVbistro
p756
aVbit
p757
aVbite
p758
aVbk
p759
aVblack
p760
aVblackberri
p761
aVblackboard
p762
aVblacktop
p763
aVblade
p764
aVblank
p765
aVblanket
p766
aVblaster
p767
aVblazer
p768
aVbleach
p769
aVblend
p770
aVblender
p771
aVbless
p772
aVblick
p773
aVblind
p774
aVblink
p775
aVblock
p776
aVblog
p777
aVblood
p778
aVbloom
p779
aVblossom
p780
aVblower
p781
aVblue
p782
aVbluebonnet
p783
aVblueprint
p784
aVbluest
p785
aVbluetooth
p786
aVbluford
p787
aVblume
p788
aVbo
p789
aVboard
p790
aVboardgam
p791
aVboardmak
p792
aVboat
p793
aVbob
p794
aVbodi
p795
aVboggl
p796
aVbolster
p797
aVbolt
p798
aVbomb
p799
aVbond
p800
aVbone
p801
aVbongo
p802
aVbonu
p803
aVboo
p804
aVboogi
p805
aVbook
p806
aVbookbag
p807
aVbookbind
p808
aVbookcas
p809
aVbookend
p810
aVbooklet
p811
aVbookmak
p812
aVbookmark
p813
aVbookshelf
p814
aVbookshelv
p815
aVbookstand
p816
aVbookstor
p817
aVbookworm
p818
aVboom
p819
aVboombox
p820
aVboomwhack
p821
aVboost
p822
aVboot
p823
aVbooth
p824
aVborax
p825
aVborder
p826
aVbore
p827
aVboredom
p828
aVborn
p829
aVborrow
p830
aVbose
p831
aVboston
p832
aVbot
p833
aVbotan
p834
aVbotani
p835
aVbottl
p836
aVbottom
p837
aVbought
p838
aVbounc
p839
aVbounci
p840
aVbound
p841
aVboundari
p842
aVbow
p843
aVbowl
p844
aVbox
p845
aVboxcar
p846
aVboy
p847
aVbpa
p848
aVbracelet
p849
aVbracken
p850
aVbracket
p851
aVbraid
p852
aVbraill
p853
aVbrain
p854
aVbrainpop
p855
aVbrainstorm
p856
aVbrand
p857
aVbrass
p858
aVbrassica
p859
aVbrave
p860
aVbrayer
p861
aVbread
p862
aVbreadwinn
p863
aVbreak
p864
aVbreaker
p865
aVbreakfast
p866
aVbreath
p867
aVbreed
p868
aVbrian
p869
aVbrick
p870
aVbridg
p871
aVbrief
p872
aVbrien
p873
aVbright
p874
aVbrighten
p875
aVbrighter
p876
aVbrightli
p877
aVbrilliant
p878
aVbring
p879
aVbristl
p880
aVbristol
p881
aVbritannica
p882
aVbritish
p883
aVbroach
p884
aVbroadcast
p885
aVbroaden
p886
aVbroader
p887
aVbroadway
p888
aVbrochur
p889
aVbrock
p890
aVbroke
p891
aVbroken
p892
aVbronx
p893
aVbrooder
p894
aVbrooklyn
p895
aVbroom
p896
aVbrother
p897
aVbrought
p898
aVbrown
p899
aVbrowni
p900
aVbrownsvil
p901
aVbrows
p902
aVbruce
p903
aVbrush
p904
aVbu
p905
aVbubbl
p906
aVbuck
p907
aVbucket
p908
aVbud
p909
aVbuddi
p910
aVbudget
p911
aVbudgetari
p912
aVbug
p913
aVbuild
p914
aVbuilder
p915
aVbuilt
p916
aVbulb
p917
aVbulk
p918
aVbull
p919
aVbullet
p920
aVbulletin
p921
aVbullfrog
p922
aVbulli
p923
aVbump
p924
aVbunch
p925
aVbundl
p926
aVbunni
p927
aVbunnicula
p928
aVbunsen
p929
aVbunt
p930
aVburden
p931
aVburet
p932
aVburlap
p933
aVburn
p934
aVburner
p935
aVburnt
p936
aVburst
p937
aVbuse
p938
aVbush
p939
aVbusi
p940
aVbuster
p941
aVbutcher
p942
aVbutt
p943
aVbutterfli
p944
aVbutton
p945
aVbuy
p946
aVbuzz
p947
aVbuzzer
p948
aVbyod
p949
aVbystand
p950
aVca
p951
aVcabasa
p952
aVcabin
p953
aVcabinet
p954
aVcabl
p955
aVcabret
p956
aVcad
p957
aVcaddi
p958
aVcaesar
p959
aVcafe
p960
aVcafeteria
p961
aVcage
p962
aVcake
p963
aVcalc
p964
aVcalcul
p965
aVcalculu
p966
aVcaldecott
p967
aVcalend
p968
aVcalendar
p969
aVcalifon
p970
aVcalifornia
p971
aVcalifornian
p972
aVcalkin
p973
aVcall
p974
aVcalligraphi
p975
aVcalm
p976
aVcalori
p977
aVcam
p978
aVcamara
p979
aVcambridg
p980
aVcamcord
p981
aVcame
p982
aVcamer
p983
aVcamera
p984
aVcamp
p985
aVcampaign
p986
aVcampbel
p987
aVcampu
p988
aVcampus
p989
aVcamtasia
p990
aVcan
p991
aVcancel
p992
aVcancer
p993
aVcandi
p994
aVcandl
p995
aVcandler
p996
aVcannon
p997
aVcannot
p998
aVcanon
p999
aVcanopi
p1000
aVcanva
p1001
aVcanvas
p1002
aVcanyon
p1003
aVcap
p1004
aVcapabl
p1005
aVcapac
p1006
aVcapacitor
p1007
aVcapit
p1008
aVcapitol
p1009
aVcapon
p1010
aVcapsul
p1011
aVcaptain
p1012
aVcaption
p1013
aVcaptiv
p1014
aVcaptur
p1015
aVcar
p1016
aVcarbon
p1017
aVcard
p1018
aVcardboard
p1019
aVcardio
p1020
aVcardiovascular
p1021
aVcardmast
p1022
aVcardstock
p1023
aVcare
p1024
aVcareer
p1025
aVcaribbean
p1026
aVcarl
p1027
aVcarnegi
p1028
aVcarniv
p1029
aVcarnivor
p1030
aVcarol
p1031
aVcarolin
p1032
aVcarolina
p1033
aVcarp
p1034
aVcarpet
p1035
aVcarrel
p1036
aVcarri
p1037
aVcarrier
p1038
aVcarson
p1039
aVcart
p1040
aVcartidg
p1041
aVcarton
p1042
aVcartoon
p1043
aVcartridg
p1044
aVcartrig
p1045
aVcarv
p1046
aVcasa
p1047
aVcase
p1048
aVcasett
p1049
aVcash
p1050
aVcasio
p1051
aVcassett
p1052
aVcast
p1053
aVcastl
p1054
aVcasu
p1055
aVcat
p1056
aVcatalog
p1057
aVcatapult
p1058
aVcatch
p1059
aVcatcher
p1060
aVcategor
p1061
aVcategori
p1062
aVcater
p1063
aVcaterpillar
p1064
aVcatherin
p1065
aVcatl
p1066
aVcaucasian
p1067
aVcaught
p1068
aVcaus
p1069
aVcave
p1070
aVcavern
p1071
aVcay
p1072
aVcbr
p1073
aVcc
p1074
aVccss
p1075
aVcd
p1076
aVceil
p1077
aVcelebr
p1078
aVcell
p1079
aVcello
p1080
aVcement
p1081
aVcent
p1082
aVcenter
p1083
aVcentimet
p1084
aVcentral
p1085
aVcentrifug
p1086
aVcenturi
p1087
aVceram
p1088
aVcereal
p1089
aVceremoni
p1090
aVcertain
p1091
aVcertainli
p1092
aVcertif
p1093
aVcertifi
p1094
aVcesar
p1095
aVchabot
p1096
aVchain
p1097
aVchair
p1098
aVchairback
p1099
aVchalk
p1100
aVchalkboard
p1101
aVchalleng
p1102
aVchamber
p1103
aVchamp
p1104
aVchampion
p1105
aVchampionship
p1106
aVchanc
p1107
aVchang
p1108
aVchannel
p1109
aVchant
p1110
aVchao
p1111
aVchaperon
p1112
aVchapter
p1113
aVcharact
p1114
aVcharacterist
p1115
aVcharcoal
p1116
aVcharg
p1117
aVcharger
p1118
aVchariti
p1119
aVcharl
p1120
aVcharli
p1121
aVcharlott
p1122
aVchart
p1123
aVcharter
p1124
aVchase
p1125
aVchat
p1126
aVchavez
p1127
aVcheap
p1128
aVcheaper
p1129
aVcheat
p1130
aVcheck
p1131
aVcheckbook
p1132
aVchecker
p1133
aVcheckout
p1134
aVcheer
p1135
aVcheerlead
p1136
aVchees
p1137
aVchef
p1138
aVchem
p1139
aVchemic
p1140
aVchemistri
p1141
aVchenil
p1142
aVcherish
p1143
aVcheroke
p1144
aVcherri
p1145
aVchess
p1146
aVchest
p1147
aVchevron
p1148
aVchew
p1149
aVchewi
p1150
aVchicago
p1151
aVchick
p1152
aVchicka
p1153
aVchicken
p1154
aVchihuli
p1155
aVchild
p1156
aVchildhood
p1157
aVchildren
p1158
aVchill
p1159
aVchiller
p1160
aVchime
p1161
aVchina
p1162
aVchines
p1163
aVchip
p1164
aVchipboard
p1165
aVchisel
p1166
aVchocol
p1167
aVchoic
p1168
aVchoir
p1169
aVchoos
p1170
aVchoral
p1171
aVchord
p1172
aVchoreographi
p1173
aVchoru
p1174
aVchose
p1175
aVchosen
p1176
aVchri
p1177
aVchristma
p1178
aVchristoph
p1179
aVchromat
p1180
aVchrome
p1181
aVchromebook
p1182
aVchromecast
p1183
aVchronicl
p1184
aVchuck
p1185
aVchunk
p1186
aVchute
p1187
aVcinch
p1188
aVcinco
p1189
aVcinder
p1190
aVcinderella
p1191
aVcinema
p1192
aVcintiq
p1193
aVcircl
p1194
aVcircuit
p1195
aVcircul
p1196
aVcircumst
p1197
aVcirqu
p1198
aVcirriculum
p1199
aVcisnero
p1200
aVcite
p1201
aVciti
p1202
aVcitizen
p1203
aVcitizenship
p1204
aVcivic
p1205
aVcivil
p1206
aVclack
p1207
aVclaim
p1208
aVclamp
p1209
aVclarinet
p1210
aVclariti
p1211
aVclark
p1212
aVclasroom
p1213
aVclass
p1214
aVclassic
p1215
aVclassif
p1216
aVclassifi
p1217
aVclassmat
p1218
aVclasspack
p1219
aVclassrom
p1220
aVclassroom
p1221
aVclassroon
p1222
aVclassrooom
p1223
aVclasssroom
p1224
aVclasstim
p1225
aVclasswork
p1226
aVclave
p1227
aVclaw
p1228
aVclay
p1229
aVclaymat
p1230
aVclean
p1231
aVcleaner
p1232
aVcleanli
p1233
aVclear
p1234
aVclearboard
p1235
aVclearchat
p1236
aVclearer
p1237
aVcleari
p1238
aVclearli
p1239
aVclement
p1240
aVclementin
p1241
aVclever
p1242
aVclick
p1243
aVclicker
p1244
aVclifford
p1245
aVclimat
p1246
aVclimb
p1247
aVclinic
p1248
aVclinomet
p1249
aVclip
p1250
aVclipboard
p1251
aVclipper
p1252
aVcliqu
p1253
aVclock
p1254
aVclorox
p1255
aVclose
p1256
aVcloser
p1257
aVcloset
p1258
aVcloth
p1259
aVclotheslin
p1260
aVclothespin
p1261
aVcloud
p1262
aVcloudi
p1263
aVclub
p1264
aVclue
p1265
aVcluster
p1266
aVclutter
p1267
aVco
p1268
aVco2
p1269
aVcoach
p1270
aVcoast
p1271
aVcoaster
p1272
aVcoat
p1273
aVcobi
p1274
aVcocoa
p1275
aVcode
p1276
aVcoelho
p1277
aVcoffe
p1278
aVcognit
p1279
aVcohes
p1280
aVcohort
p1281
aVcoil
p1282
aVcoin
p1283
aVcoincid
p1284
aVcold
p1285
aVcollabor
p1286
aVcollag
p1287
aVcollar
p1288
aVcolleagu
p1289
aVcollect
p1290
aVcollector
p1291
aVcolleg
p1292
aVcollegi
p1293
aVcollin
p1294
aVcoloni
p1295
aVcolor
p1296
aVcolorado
p1297
aVcolorimet
p1298
aVcolumbian
p1299
aVcolumn
p1300
aVcom
p1301
aVcomb
p1302
aVcombat
p1303
aVcombin
p1304
aVcombo
p1305
aVcomcord
p1306
aVcome
p1307
aVcomfi
p1308
aVcomfort
p1309
aVcomic
p1310
aVcommand
p1311
aVcomment
p1312
aVcommerci
p1313
aVcommit
p1314
aVcommitte
p1315
aVcommon
p1316
aVcommonli
p1317
aVcommun
p1318
aVcomp
p1319
aVcompact
p1320
aVcompani
p1321
aVcompanion
p1322
aVcompaq
p1323
aVcompar
p1324
aVcomparison
p1325
aVcompart
p1326
aVcompass
p1327
aVcompat
p1328
aVcompel
p1329
aVcompens
p1330
aVcompet
p1331
aVcompetet
p1332
aVcompetit
p1333
aVcompetitor
p1334
aVcompil
p1335
aVcomplement
p1336
aVcomplet
p1337
aVcomplex
p1338
aVcompli
p1339
aVcomplic
p1340
aVcompliment
p1341
aVcompon
p1342
aVcompos
p1343
aVcomposit
p1344
aVcompost
p1345
aVcompound
p1346
aVcomprehend
p1347
aVcomprehens
p1348
aVcompress
p1349
aVcompressor
p1350
aVcomput
p1351
aVcomputer
p1352
aVconceal
p1353
aVconcentr
p1354
aVconcept
p1355
aVconceptu
p1356
aVconcern
p1357
aVconcert
p1358
aVconcis
p1359
aVconclus
p1360
aVconcret
p1361
aVcondens
p1362
aVcondit
p1363
aVcondition
p1364
aVconduc
p1365
aVconduct
p1366
aVconductor
p1367
aVcone
p1368
aVconfer
p1369
aVconfess
p1370
aVconfetti
p1371
aVconfid
p1372
aVconfidenti
p1373
aVconfin
p1374
aVconflict
p1375
aVconfucian
p1376
aVconfus
p1377
aVconga
p1378
aVcongress
p1379
aVconjunct
p1380
aVconnect
p1381
aVconnecticut
p1382
aVconnector
p1383
aVconquer
p1384
aVconsequ
p1385
aVconserv
p1386
aVconsid
p1387
aVconsider
p1388
aVconsist
p1389
aVconsol
p1390
aVconson
p1391
aVconstant
p1392
aVconstantli
p1393
aVconstitut
p1394
aVconstraint
p1395
aVconstruct
p1396
aVconsum
p1397
aVconsumpt
p1398
aVcontact
p1399
aVcontain
p1400
aVcontamin
p1401
aVcontemporari
p1402
aVcontent
p1403
aVcontest
p1404
aVcontext
p1405
aVcontextu
p1406
aVcontin
p1407
aVcontinu
p1408
aVcontrabass
p1409
aVcontract
p1410
aVcontrast
p1411
aVcontribut
p1412
aVcontributor
p1413
aVcontrol
p1414
aVcontruct
p1415
aVconvect
p1416
aVconveni
p1417
aVconvent
p1418
aVconvers
p1419
aVconvert
p1420
aVconvinc
p1421
aVcook
p1422
aVcookbook
p1423
aVcooker
p1424
aVcooki
p1425
aVcookwar
p1426
aVcool
p1427
aVcooler
p1428
aVcoolpix
p1429
aVcooper
p1430
aVcoordin
p1431
aVcope
p1432
aVcopi
p1433
aVcopier
p1434
aVcopper
p1435
aVcoralin
p1436
aVcord
p1437
aVcordless
p1438
aVcorduroy
p1439
aVcore
p1440
aVcork
p1441
aVcorn
p1442
aVcorner
p1443
aVcorp
p1444
aVcorrect
p1445
aVcorrectli
p1446
aVcorrector
p1447
aVcorrel
p1448
aVcorrespond
p1449
aVcost
p1450
aVcosta
p1451
aVcostli
p1452
aVcostum
p1453
aVcot
p1454
aVcotton
p1455
aVcouch
p1456
aVcould
p1457
aVcouncil
p1458
aVcounsel
p1459
aVcounselor
p1460
aVcount
p1461
aVcountdown
p1462
aVcounter
p1463
aVcounti
p1464
aVcountless
p1465
aVcountri
p1466
aVcoupl
p1467
aVcoupon
p1468
aVcourag
p1469
aVcours
p1470
aVcoursewar
p1471
aVcourt
p1472
aVcourtesi
p1473
aVcourtyard
p1474
aVcover
p1475
aVcoverag
p1476
aVcovey
p1477
aVcow
p1478
aVcowbel
p1479
aVcozi
p1480
aVcp
p1481
aVcpo
p1482
aVcpr
p1483
aVcrab
p1484
aVcrack
p1485
aVcracker
p1486
aVcradl
p1487
aVcraft
p1488
aVcram
p1489
aVcramp
p1490
aVcrane
p1491
aVcrank
p1492
aVcrash
p1493
aVcrate
p1494
aVcrawl
p1495
aVcrayfish
p1496
aVcrayola
p1497
aVcrayon
p1498
aVcrazi
p1499
aVcream
p1500
aVcreat
p1501
aVcreation
p1502
aVcreativ
p1503
aVcreator
p1504
aVcreatur
p1505
aVcredit
p1506
aVcreech
p1507
aVcreek
p1508
aVcrew
p1509
aVcri
p1510
aVcribbag
p1511
aVcricket
p1512
aVcricut
p1513
aVcrime
p1514
aVcrinkl
p1515
aVcrisi
p1516
aVcrispin
p1517
aVcritic
p1518
aVcritiqu
p1519
aVcritter
p1520
aVcrochet
p1521
aVcrocodil
p1522
aVcrop
p1523
aVcroquet
p1524
aVcross
p1525
aVcrowd
p1526
aVcrucial
p1527
aVcrucibl
p1528
aVcruis
p1529
aVcruso
p1530
aVcruz
p1531
aVcrystal
p1532
aVcs
p1533
aVcs4
p1534
aVcs5
p1535
aVcsi
p1536
aVcst
p1537
aVct
p1538
aVcte
p1539
aVcubbi
p1540
aVcube
p1541
aVcubic
p1542
aVcuckoo
p1543
aVcue
p1544
aVcuisenair
p1545
aVculinari
p1546
aVculmin
p1547
aVcultiv
p1548
aVcultur
p1549
aVcumfer
p1550
aVcumul
p1551
aVcuni
p1552
aVcup
p1553
aVcupboard
p1554
aVcupcak
p1555
aVcure
p1556
aVcurios
p1557
aVcuriou
p1558
aVcurious
p1559
aVcurl
p1560
aVcurrent
p1561
aVcurricula
p1562
aVcurricular
p1563
aVcurriculm
p1564
aVcurriculum
p1565
aVcurs
p1566
aVcursiv
p1567
aVcurti
p1568
aVcurv
p1569
aVcushion
p1570
aVcustom
p1571
aVcut
p1572
aVcutback
p1573
aVcutout
p1574
aVcutter
p1575
aVcvc
p1576
aVcyan
p1577
aVcyber
p1578
aVcycl
p1579
aVcylind
p1580
aVcymbal
p1581
aVcynthia
p1582
aVdad
p1583
aVdade
p1584
aVdahl
p1585
aVdaili
p1586
aVdakota
p1587
aVdale
p1588
aVdalla
p1589
aVdamag
p1590
aVdan
p1591
aVdanc
p1592
aVdancer
p1593
aVdanger
p1594
aVdare
p1595
aVdark
p1596
aVdata
p1597
aVdatabas
p1598
aVdate
p1599
aVdaughter
p1600
aVdave
p1601
aVdavi
p1602
aVdavid
p1603
aVday
p1604
aVdazzl
p1605
aVdc
p1606
aVde
p1607
aVdead
p1608
aVdeadli
p1609
aVdeadlin
p1610
aVdeaf
p1611
aVdeal
p1612
aVdealt
p1613
aVdean
p1614
aVdear
p1615
aVdearli
p1616
aVdeath
p1617
aVdebat
p1618
aVdeborah
p1619
aVdebt
p1620
aVdecad
p1621
aVdecathlon
p1622
aVdecemb
p1623
aVdecent
p1624
aVdecid
p1625
aVdecim
p1626
aVdecis
p1627
aVdeck
p1628
aVdeclar
p1629
aVdecod
p1630
aVdecomposit
p1631
aVdecompress
p1632
aVdecor
p1633
aVdecreas
p1634
aVdedic
p1635
aVdeduct
p1636
aVdeed
p1637
aVdeep
p1638
aVdeepen
p1639
aVdeeper
p1640
aVdeepli
p1641
aVdefault
p1642
aVdefend
p1643
aVdefici
p1644
aVdeficit
p1645
aVdefin
p1646
aVdefinit
p1647
aVdegre
p1648
aVdelay
p1649
aVdelight
p1650
aVdeliv
p1651
aVdeliveri
p1652
aVdell
p1653
aVdelta
p1654
aVdelux
p1655
aVdelv
p1656
aVdemand
p1657
aVdemo
p1658
aVdemocraci
p1659
aVdemograph
p1660
aVdemonst
p1661
aVdemonstr
p1662
aVdemostr
p1663
aVdensiti
p1664
aVdepart
p1665
aVdepend
p1666
aVdepict
p1667
aVdeplet
p1668
aVdeploy
p1669
aVdeposit
p1670
aVdepot
p1671
aVdepress
p1672
aVdepriv
p1673
aVdept
p1674
aVdepth
p1675
aVderiv
p1676
aVdescrib
p1677
aVdescript
p1678
aVdesert
p1679
aVdeserv
p1680
aVdesign
p1681
aVdesir
p1682
aVdesk
p1683
aVdesktop
p1684
aVdespar
p1685
aVdesper
p1686
aVdespereaux
p1687
aVdespit
p1688
aVdestin
p1689
aVdestini
p1690
aVdestroy
p1691
aVdetail
p1692
aVdetect
p1693
aVdetector
p1694
aVdeterg
p1695
aVdetermin
p1696
aVdev
p1697
aVdevast
p1698
aVdevelop
p1699
aVdevelopment
p1700
aVdevic
p1701
aVdevil
p1702
aVdevot
p1703
aVdevour
p1704
aVdexter
p1705
aVdia
p1706
aVdiabet
p1707
aVdiagnos
p1708
aVdiagram
p1709
aVdialogu
p1710
aVdiamet
p1711
aVdiaper
p1712
aVdiari
p1713
aVdiaton
p1714
aVdibel
p1715
aVdice
p1716
aVdick
p1717
aVdictat
p1718
aVdictionari
p1719
aVdidj
p1720
aVdidn
p1721
aVdie
p1722
aVdiego
p1723
aVdiet
p1724
aVdiffer
p1725
aVdifferenti
p1726
aVdiffernt
p1727
aVdifficult
p1728
aVdifficulti
p1729
aVdiffus
p1730
aVdig
p1731
aVdigest
p1732
aVdigial
p1733
aVdigit
p1734
aVdigiti
p1735
aVdigitz
p1736
aVdigraph
p1737
aVdigtial
p1738
aVdilapid
p1739
aVdilemma
p1740
aVdim
p1741
aVdime
p1742
aVdimens
p1743
aVdimension
p1744
aVdiminish
p1745
aVdine
p1746
aVdinner
p1747
aVdino
p1748
aVdinosaur
p1749
aVdiorama
p1750
aVdiploma
p1751
aVdire
p1752
aVdirect
p1753
aVdirectli
p1754
aVdirector
p1755
aVdirt
p1756
aVdirti
p1757
aVdisabilit
p1758
aVdisabl
p1759
aVdisadvantag
p1760
aVdisappear
p1761
aVdisast
p1762
aVdisc
p1763
aVdiscard
p1764
aVdisciplin
p1765
aVdisciplinari
p1766
aVdiscov
p1767
aVdiscoveri
p1768
aVdiscret
p1769
aVdiscrimin
p1770
aVdiscuss
p1771
aVdiseas
p1772
aVdisect
p1773
aVdish
p1774
aVdishwash
p1775
aVdisinfect
p1776
aVdisk
p1777
aVdismiss
p1778
aVdisney
p1779
aVdisneyland
p1780
aVdisord
p1781
aVdispens
p1782
aVdisplac
p1783
aVdisplay
p1784
aVdispos
p1785
aVdisrepair
p1786
aVdisrupt
p1787
aVdissect
p1788
aVdissemin
p1789
aVdisservic
p1790
aVdissolv
p1791
aVdistanc
p1792
aVdistil
p1793
aVdistinct
p1794
aVdistinguish
p1795
aVdistract
p1796
aVdistribut
p1797
aVdistrict
p1798
aVdisturb
p1799
aVditig
p1800
aVdive
p1801
aVdiverg
p1802
aVdivers
p1803
aVdiversifi
p1804
aVdivid
p1805
aVdivis
p1806
aVdixi
p1807
aVdj
p1808
aVdjemb
p1809
aVdk
p1810
aVdlp
p1811
aVdna
p1812
aVdoc
p1813
aVdock
p1814
aVdoctor
p1815
aVdocument
p1816
aVdocumentari
p1817
aVdodgebal
p1818
aVdoesn
p1819
aVdog
p1820
aVdogfish
p1821
aVdoh
p1822
aVdojo
p1823
aVdoll
p1824
aVdollar
p1825
aVdollhous
p1826
aVdolphin
p1827
aVdome
p1828
aVdomin
p1829
aVdomino
p1830
aVdonat
p1831
aVdone
p1832
aVdonor
p1833
aVdonorschoos
p1834
aVdont
p1835
aVdoodl
p1836
aVdoodler
p1837
aVdoor
p1838
aVdork
p1839
aVdot
p1840
aVdoubl
p1841
aVdough
p1842
aVdouglass
p1843
aVdowel
p1844
aVdown
p1845
aVdownload
p1846
aVdowntown
p1847
aVdozen
p1848
aVdr
p1849
aVdra
p1850
aVdracula
p1851
aVdraft
p1852
aVdragon
p1853
aVdragonw
p1854
aVdrama
p1855
aVdramat
p1856
aVdramtic
p1857
aVdraper
p1858
aVdrastic
p1859
aVdraw
p1860
aVdrawer
p1861
aVdrawn
p1862
aVdread
p1863
aVdream
p1864
aVdreambox
p1865
aVdress
p1866
aVdri
p1867
aVdrill
p1868
aVdrink
p1869
aVdrive
p1870
aVdriven
p1871
aVdriver
p1872
aVdrone
p1873
aVdrop
p1874
aVdropper
p1875
aVdrug
p1876
aVdrum
p1877
aVdrumlin
p1878
aVdrumstick
p1879
aVdryer
p1880
aVds
p1881
aVdslr
p1882
aVdu
p1883
aVdual
p1884
aVduck
p1885
aVduckl
p1886
aVduct
p1887
aVdue
p1888
aVduel
p1889
aVduke
p1890
aVdulcim
p1891
aVdull
p1892
aVdumbbel
p1893
aVduplic
p1894
aVduplo
p1895
aVduprau
p1896
aVdurabl
p1897
aVdust
p1898
aVdusti
p1899
aVdutch
p1900
aVduti
p1901
aVdv
p1902
aVdvd
p1903
aVdwell
p1904
aVdwindl
p1905
aVdye
p1906
aVdyna
p1907
aVdynam
p1908
aVdynamath
p1909
aVdyslexia
p1910
aVdystopian
p1911
aVeachoth
p1912
aVeager
p1913
aVeagl
p1914
aVear
p1915
aVearbud
p1916
aVearli
p1917
aVearlier
p1918
aVearn
p1919
aVearphon
p1920
aVearth
p1921
aVearthquak
p1922
aVearthworm
p1923
aVeas
p1924
aVeasel
p1925
aVeasi
p1926
aVeasier
p1927
aVeasiest
p1928
aVeasili
p1929
aVeast
p1930
aVeastern
p1931
aVeasyshar
p1932
aVeat
p1933
aVeaten
p1934
aVeb
p1935
aVebeam
p1936
aVebook
p1937
aVecho
p1938
aVeclick
p1939
aVeco
p1940
aVecolog
p1941
aVeconom
p1942
aVeconomi
p1943
aVecosystem
p1944
aVect
p1945
aVed
p1946
aVedg
p1947
aVedgar
p1948
aVedger
p1949
aVedibl
p1950
aVedit
p1951
aVedmodo
p1952
aVedna
p1953
aVedu
p1954
aVeduc
p1955
aVeducationa
p1956
aVeducr
p1957
aVeduct
p1958
aVedward
p1959
aVeffect
p1960
aVeffectivli
p1961
aVeffici
p1962
aVeffort
p1963
aVegg
p1964
aVeggspert
p1965
aVegypt
p1966
aVegyptian
p1967
aVeight
p1968
aVeighth
p1969
aVeinstein
p1970
aVeither
p1971
aVel
p1972
aVela
p1973
aVelabor
p1974
aVelaps
p1975
aVelbow
p1976
aVeld
p1977
aVeleanor
p1978
aVelect
p1979
aVelectr
p1980
aVelectrifi
p1981
aVelectromagnet
p1982
aVelectron
p1983
aVelectrophoresi
p1984
aVelectroscop
p1985
aVelegan
p1986
aVelement
p1987
aVelementari
p1988
aVeleph
p1989
aVelev
p1990
aVeleven
p1991
aVeli
p1992
aVelicit
p1993
aVelimin
p1994
aVelis
p1995
aVelit
p1996
aVell
p1997
aVella
p1998
aVelli
p1999
aVellipt
p2000
aVellison
p2001
aVelmer
p2002
aVelmo
p2003
aVels
p2004
aVemail
p2005
aVemb
p2006
aVembarass
p2007
aVembark
p2008
aVembed
p2009
aVembellish
p2010
aVember
p2011
aVemboss
p2012
aVembrac
p2013
aVembryo
p2014
aVembryolog
p2015
aVemerg
p2016
aVemili
p2017
aVemma
p2018
aVemot
p2019
aVempathi
p2020
aVemphas
p2021
aVemphasi
p2022
aVempir
p2023
aVemploy
p2024
aVempow
p2025
aVempower
p2026
aVempti
p2027
aVemul
p2028
aVen
p2029
aVenabl
p2030
aVenact
p2031
aVenchanc
p2032
aVenchant
p2033
aVenclosur
p2034
aVencompass
p2035
aVencount
p2036
aVencourag
p2037
aVencyclopaedia
p2038
aVencyclopedia
p2039
aVend
p2040
aVendang
p2041
aVendeavor
p2042
aVender
p2043
aVendless
p2044
aVendotherm
p2045
aVendpin
p2046
aVendur
p2047
aVenerg
p2048
aVenerget
p2049
aVenergi
p2050
aVenforc
p2051
aVenga
p2052
aVengag
p2053
aVengin
p2054
aVengland
p2055
aVenglish
p2056
aVengross
p2057
aVenhanc
p2058
aVenjoy
p2059
aVenlarg
p2060
aVenlighten
p2061
aVenliven
p2062
aVeno
p2063
aVenorm
p2064
aVenough
p2065
aVenrich
p2066
aVenriqu
p2067
aVenrol
p2068
aVensembl
p2069
aVensur
p2070
aVenter
p2071
aVentertain
p2072
aVenthus
p2073
aVenthusiasm
p2074
aVenthusiast
p2075
aVentic
p2076
aVentir
p2077
aVentitl
p2078
aVentranc
p2079
aVentrepreneur
p2080
aVentrepreneurship
p2081
aVentri
p2082
aVenvelop
p2083
aVenvi
p2084
aVenviorn
p2085
aVenviro
p2086
aVenviron
p2087
aVenvironment
p2088
aVenvis
p2089
aVenvrion
p2090
aVenzym
p2091
aVeo
p2092
aVeoc
p2093
aVeog
p2094
aVepal
p2095
aVepic
p2096
aVepson
p2097
aVequal
p2098
aVequat
p2099
aVequip
p2100
aVequipt
p2101
aVequit
p2102
aVequival
p2103
aVequpi
p2104
aVera
p2105
aVeras
p2106
aVeread
p2107
aVerector
p2108
aVergonom
p2109
aVeri
p2110
aVeric
p2111
aVerlenmey
p2112
aVernest
p2113
aVeros
p2114
aVerror
p2115
aVerupt
p2116
aVescap
p2117
aVeschoolmal
p2118
aVese
p2119
aVesl
p2120
aVesol
p2121
aVespeci
p2122
aVesperanza
p2123
aVessay
p2124
aVessenti
p2125
aVest
p2126
aVestablish
p2127
aVesteem
p2128
aVestim
p2129
aVestuari
p2130
aVetc
p2131
aVetch
p2132
aVethernet
p2133
aVethic
p2134
aVethnic
p2135
aVetiquett
p2136
aVeudora
p2137
aVeurop
p2138
aVeuropean
p2139
aVev3
p2140
aVevalu
p2141
aVevan
p2142
aVeven
p2143
aVevenli
p2144
aVevent
p2145
aVeventu
p2146
aVever
p2147
aVeverday
p2148
aVeverest
p2149
aVeveri
p2150
aVeverlast
p2151
aVeveryday
p2152
aVeveryon
p2153
aVeveryth
p2154
aVeverytim
p2155
aVeverywher
p2156
aVevid
p2157
aVevok
p2158
aVevolut
p2159
aVevolv
p2160
aVex
p2161
aVexact
p2162
aVexactli
p2163
aVexam
p2164
aVexamin
p2165
aVexampl
p2166
aVexcav
p2167
aVexceed
p2168
aVexcel
p2169
aVexcept
p2170
aVexception
p2171
aVexcercis
p2172
aVexcess
p2173
aVexchang
p2174
aVexcit
p2175
aVexecut
p2176
aVexemplar
p2177
aVexemplari
p2178
aVexerbug
p2179
aVexercis
p2180
aVexert
p2181
aVexhibit
p2182
aVexist
p2183
aVexit
p2184
aVexotherm
p2185
aVexpand
p2186
aVexpans
p2187
aVexpect
p2188
aVexpedit
p2189
aVexpend
p2190
aVexpens
p2191
aVexpereinc
p2192
aVexperi
p2193
aVexperienc
p2194
aVexperienti
p2195
aVexperiment
p2196
aVexperinc
p2197
aVexpert
p2198
aVexpir
p2199
aVexplain
p2200
aVexplan
p2201
aVexplicit
p2202
aVexplor
p2203
aVexploratori
p2204
aVexpo
p2205
aVexponenti
p2206
aVexpos
p2207
aVexpositori
p2208
aVexposur
p2209
aVexpress
p2210
aVextend
p2211
aVextens
p2212
aVextern
p2213
aVextinct
p2214
aVextra
p2215
aVextract
p2216
aVextraordinari
p2217
aVextrem
p2218
aVextrins
p2219
aVextrud
p2220
aVeye
p2221
aVeyewit
p2222
aVeyr
p2223
aVezra
p2224
aVfab
p2225
aVfabl
p2226
aVfabric
p2227
aVfabul
p2228
aVface
p2229
aVfacial
p2230
aVfacil
p2231
aVfacilit
p2232
aVfact
p2233
aVfactor
p2234
aVfactori
p2235
aVfactual
p2236
aVfaculti
p2237
aVfade
p2238
aVfadeless
p2239
aVfahrenheit
p2240
aVfail
p2241
aVfailur
p2242
aVfair
p2243
aVfairi
p2244
aVfairytal
p2245
aVfake
p2246
aVfall
p2247
aVfallen
p2248
aVfame
p2249
aVfamili
p2250
aVfamiliar
p2251
aVfamou
p2252
aVfan
p2253
aVfanci
p2254
aVfantasi
p2255
aVfantast
p2256
aVfar
p2257
aVfare
p2258
aVfarewel
p2259
aVfarm
p2260
aVfarmer
p2261
aVfascin
p2262
aVfashion
p2263
aVfast
p2264
aVfasten
p2265
aVfaster
p2266
aVfastest
p2267
aVfastner
p2268
aVfat
p2269
aVfather
p2270
aVfault
p2271
aVfauna
p2272
aVfavorit
p2273
aVfax
p2274
aVfcat
p2275
aVfccla
p2276
aVfe
p2277
aVfear
p2278
aVfeast
p2279
aVfeather
p2280
aVfeatur
p2281
aVfeb
p2282
aVfed
p2283
aVfeder
p2284
aVfee
p2285
aVfeed
p2286
aVfeedback
p2287
aVfeeder
p2288
aVfeel
p2289
aVfeet
p2290
aVfell
p2291
aVfellow
p2292
aVfelt
p2293
aVfemal
p2294
aVfenc
p2295
aVfenway
p2296
aVfern
p2297
aVfertil
p2298
aVfestiv
p2299
aVfetal
p2300
aVfever
p2301
aVffa
p2302
aVfi
p2303
aVfiber
p2304
aVfiction
p2305
aVfidget
p2306
aVfield
p2307
aVfifteen
p2308
aVfifth
p2309
aVfifti
p2310
aVfight
p2311
aVfigur
p2312
aVfigurin
p2313
aVfilament
p2314
aVfile
p2315
aVfill
p2316
aVfiller
p2317
aVfilm
p2318
aVfilmmak
p2319
aVfilter
p2320
aVfiltrat
p2321
aVfinal
p2322
aVfinanc
p2323
aVfinanci
p2324
aVfinch
p2325
aVfind
p2326
aVfinder
p2327
aVfine
p2328
aVfinest
p2329
aVfinger
p2330
aVfingerpaint
p2331
aVfingerprint
p2332
aVfingertip
p2333
aVfinish
p2334
aVfinn
p2335
aVfire
p2336
aVfirefight
p2337
aVfirewir
p2338
aVfirm
p2339
aVfirst
p2340
aVfirsthand
p2341
aVfish
p2342
aVfit
p2343
aVfive
p2344
aVfix
p2345
aVfixtur
p2346
aVflag
p2347
aVflair
p2348
aVflake
p2349
aVflame
p2350
aVflannel
p2351
aVflap
p2352
aVflare
p2353
aVflash
p2354
aVflashcard
p2355
aVflashdriv
p2356
aVflashi
p2357
aVflashlight
p2358
aVflask
p2359
aVflat
p2360
aVflatb
p2361
aVflatwar
p2362
aVfleec
p2363
aVfleischman
p2364
aVflew
p2365
aVflex
p2366
aVflexibilti
p2367
aVflexibl
p2368
aVfli
p2369
aVflight
p2370
aVflimsi
p2371
aVflinn
p2372
aVflip
p2373
aVflipboard
p2374
aVflipbook
p2375
aVflipcam
p2376
aVflipchart
p2377
aVfloat
p2378
aVflood
p2379
aVfloor
p2380
aVflora
p2381
aVflorida
p2382
aVflourish
p2383
aVflow
p2384
aVflower
p2385
aVflu
p2386
aVfluenci
p2387
aVfluent
p2388
aVfluentli
p2389
aVfluff
p2390
aVfluid
p2391
aVfluoresc
p2392
aVflush
p2393
aVflute
p2394
aVflux
p2395
aVflyer
p2396
aVfo
p2397
aVfoam
p2398
aVfoamboard
p2399
aVfocu
p2400
aVfocus
p2401
aVfog
p2402
aVfoil
p2403
aVfold
p2404
aVfoldabl
p2405
aVfolder
p2406
aVfolger
p2407
aVfolk
p2408
aVfolktal
p2409
aVfollow
p2410
aVfolow
p2411
aVfont
p2412
aVfood
p2413
aVfoot
p2414
aVfootag
p2415
aVfootbal
p2416
aVfootprint
p2417
aVforc
p2418
aVforcep
p2419
aVford
p2420
aVforeign
p2421
aVforens
p2422
aVforest
p2423
aVforetold
p2424
aVforev
p2425
aVforget
p2426
aVforgotten
p2427
aVfork
p2428
aVform
p2429
aVformal
p2430
aVformat
p2431
aVformer
p2432
aVfort
p2433
aVforth
p2434
aVfortun
p2435
aVforum
p2436
aVforward
p2437
aVfoss
p2438
aVfossil
p2439
aVfoster
p2440
aVfot
p2441
aVfound
p2442
aVfoundat
p2443
aVfounta
p2444
aVfountain
p2445
aVfour
p2446
aVfourth
p2447
aVfowl
p2448
aVfox
p2449
aVfraction
p2450
aVfragment
p2451
aVframe
p2452
aVframework
p2453
aVfranc
p2454
aVfrancisco
p2455
aVfrank
p2456
aVfrankenstein
p2457
aVfranki
p2458
aVfranklin
p2459
aVfrankweil
p2460
aVfray
p2461
aVfreak
p2462
aVfreakonom
p2463
aVfreckl
p2464
aVfreddi
p2465
aVfrederick
p2466
aVfree
p2467
aVfreedom
p2468
aVfreeli
p2469
aVfreez
p2470
aVfreezer
p2471
aVfrench
p2472
aVfrenzi
p2473
aVfrequenc
p2474
aVfrequent
p2475
aVfresh
p2476
aVfreshen
p2477
aVfreshman
p2478
aVfreshmen
p2479
aVfreshwat
p2480
aVfrey
p2481
aVfri
p2482
aVfriction
p2483
aVfriday
p2484
aVfridg
p2485
aVfriedman
p2486
aVfriend
p2487
aVfriendli
p2488
aVfriendship
p2489
aVfrindl
p2490
aVfrisbe
p2491
aVfrisbi
p2492
aVfrito
p2493
aVfrog
p2494
aVfroggi
p2495
aVfront
p2496
aVfrost
p2497
aVfruit
p2498
aVfruition
p2499
aVfrustrat
p2500
aVft
p2501
aVfudg
p2502
aVfuel
p2503
aVfulfil
p2504
aVfull
p2505
aVfullest
p2506
aVfulli
p2507
aVfume
p2508
aVfun
p2509
aVfunction
p2510
aVfund
p2511
aVfundament
p2512
aVfundrais
p2513
aVfungi
p2514
aVfungu
p2515
aVfunnel
p2516
aVfunni
p2517
aVfuri
p2518
aVfurnish
p2519
aVfurnitur
p2520
aVfurther
p2521
aVfurthermor
p2522
aVfuse
p2523
aVfusion
p2524
aVfuther
p2525
aVfutur
p2526
aVga
p2527
aVgabl
p2528
aVgadget
p2529
aVgail
p2530
aVgaiman
p2531
aVgain
p2532
aVgal
p2533
aVgalaxi
p2534
aVgalleri
p2535
aVgallon
p2536
aVgame
p2537
aVgang
p2538
aVgap
p2539
aVgarag
p2540
aVgarageband
p2541
aVgarbag
p2542
aVgarden
p2543
aVgari
p2544
aVgarment
p2545
aVgase
p2546
aVgate
p2547
aVgateway
p2548
aVgather
p2549
aVgator
p2550
aVgatorad
p2551
aVgatsbi
p2552
aVgaug
p2553
aVgauz
p2554
aVgave
p2555
aVgb
p2556
aVgear
p2557
aVgecko
p2558
aVgeek
p2559
aVgel
p2560
aVgem
p2561
aVgemston
p2562
aVgene
p2563
aVgener
p2564
aVgeneros
p2565
aVgenet
p2566
aVgeniu
p2567
aVgenocid
p2568
aVgenr
p2569
aVgentl
p2570
aVgentli
p2571
aVgenuin
p2572
aVgeo
p2573
aVgeoboard
p2574
aVgeocach
p2575
aVgeod
p2576
aVgeogebra
p2577
aVgeograph
p2578
aVgeographi
p2579
aVgeolog
p2580
aVgeomet
p2581
aVgeometr
p2582
aVgeometri
p2583
aVgeorg
p2584
aVgeorgia
p2585
aVgeosafari
p2586
aVgeosolid
p2587
aVgerm
p2588
aVgerman
p2589
aVgermani
p2590
aVgermin
p2591
aVgeronimo
p2592
aVgesso
p2593
aVget
p2594
aVgetti
p2595
aVghost
p2596
aVgiant
p2597
aVgibbon
p2598
aVgift
p2599
aVgiftcard
p2600
aVgig
p2601
aVgilgamesh
p2602
aVgingerbread
p2603
aVgirl
p2604
aVgive
p2605
aVgiven
p2606
aVgiver
p2607
aVgladli
p2608
aVgladwel
p2609
aVglare
p2610
aVglass
p2611
aVglasswar
p2612
aVglaze
p2613
aVglider
p2614
aVglitter
p2615
aVglobal
p2616
aVglobe
p2617
aVglockenspiel
p2618
aVglori
p2619
aVgloss
p2620
aVglossi
p2621
aVglove
p2622
aVglow
p2623
aVglu
p2624
aVglue
p2625
aVgluestick
p2626
aVglx
p2627
aVgo
p2628
aVgoal
p2629
aVgoat
p2630
aVgoblet
p2631
aVgod
p2632
aVgoddess
p2633
aVgoe
p2634
aVgoggl
p2635
aVgogh
p2636
aVgold
p2637
aVgoldberg
p2638
aVgolden
p2639
aVgoldfish
p2640
aVgoldilock
p2641
aVgolf
p2642
aVgone
p2643
aVgong
p2644
aVgood
p2645
aVgoodi
p2646
aVgoogl
p2647
aVgoos
p2648
aVgoosebump
p2649
aVgopro
p2650
aVgorilla
p2651
aVgot
p2652
aVgotalk
p2653
aVgovern
p2654
aVgp
p2655
aVgr
p2656
aVgraaf
p2657
aVgrab
p2658
aVgrace
p2659
aVgrade
p2660
aVgrader
p2661
aVgraduat
p2662
aVgram
p2663
aVgrammar
p2664
aVgrand
p2665
aVgrandpa
p2666
aVgrandpar
p2667
aVgranola
p2668
aVgrant
p2669
aVgrape
p2670
aVgraph
p2671
aVgraphic
p2672
aVgraphit
p2673
aVgrasp
p2674
aVgrass
p2675
aVgrasshopp
p2676
aVgrate
p2677
aVgravel
p2678
aVgraveyard
p2679
aVgraviti
p2680
aVgray
p2681
aVgreas
p2682
aVgreat
p2683
aVgreater
p2684
aVgreatest
p2685
aVgreatli
p2686
aVgreec
p2687
aVgreek
p2688
aVgreen
p2689
aVgreener
p2690
aVgreenhous
p2691
aVgreg
p2692
aVgrew
p2693
aVgrey
p2694
aVgrid
p2695
aVgriddl
p2696
aVgriffin
p2697
aVgrill
p2698
aVgrime
p2699
aVgrimm
p2700
aVgrinder
p2701
aVgrip
p2702
aVgrit
p2703
aVgroceri
p2704
aVgroom
p2705
aVgross
p2706
aVgrotto
p2707
aVground
p2708
aVgroup
p2709
aVgrouptim
p2710
aVgroupwork
p2711
aVgrout
p2712
aVgrow
p2713
aVgrower
p2714
aVgrown
p2715
aVgrowth
p2716
aVgruff
p2717
aVguard
p2718
aVguardian
p2719
aVguess
p2720
aVguest
p2721
aVguid
p2722
aVguidanc
p2723
aVguidebook
p2724
aVguidelin
p2725
aVguiro
p2726
aVguitar
p2727
aVgun
p2728
aVgut
p2729
aVgutman
p2730
aVguy
p2731
aVguyana
p2732
aVgym
p2733
aVgymnasium
p2734
aVgymnast
p2735
aVhabit
p2736
aVhabitat
p2737
aVhaddix
p2738
aVhair
p2739
aVhalf
p2740
aVhall
p2741
aVhallway
p2742
aVhals
p2743
aVham
p2744
aVhamilton
p2745
aVhamlet
p2746
aVhammer
p2747
aVhamper
p2748
aVhamster
p2749
aVhana
p2750
aVhand
p2751
aVhandbal
p2752
aVhandbel
p2753
aVhandbook
p2754
aVhandheld
p2755
aVhandi
p2756
aVhandicap
p2757
aVhandl
p2758
aVhandmad
p2759
aVhandmaid
p2760
aVhandout
p2761
aVhandwrit
p2762
aVhandycam
p2763
aVhang
p2764
aVhanger
p2765
aVhappen
p2766
aVhappi
p2767
aVhappier
p2768
aVhar
p2769
aVharbor
p2770
aVhard
p2771
aVhardback
p2772
aVhardcov
p2773
aVharden
p2774
aVharder
p2775
aVhardest
p2776
aVhardi
p2777
aVhardli
p2778
aVhardship
p2779
aVhardwar
p2780
aVhardwood
p2781
aVhardwork
p2782
aVharlem
p2783
aVharm
p2784
aVharper
p2785
aVharri
p2786
aVharsh
p2787
aVharvest
p2788
aVhassl
p2789
aVhat
p2790
aVhatch
p2791
aVhatcheri
p2792
aVhatchet
p2793
aVhate
p2794
aVhaul
p2795
aVhaunt
p2796
aVhaven
p2797
aVhawkin
p2798
aVhazard
p2799
aVhd
p2800
aVhdd
p2801
aVhdmi
p2802
aVhdtv
p2803
aVhead
p2804
aVheadband
p2805
aVheadphon
p2806
aVheadset
p2807
aVheal
p2808
aVhealth
p2809
aVhealthcar
p2810
aVhealthi
p2811
aVhealthier
p2812
aVhear
p2813
aVheard
p2814
aVheart
p2815
aVheat
p2816
aVheater
p2817
aVheaven
p2818
aVheavi
p2819
aVheavili
p2820
aVheight
p2821
aVheighten
p2822
aVheir
p2823
aVheld
p2824
aVhelen
p2825
aVhello
p2826
aVhelmet
p2827
aVhelp
p2828
aVhelper
p2829
aVhemispher
p2830
aVhen
p2831
aVhenc
p2832
aVhenk
p2833
aVhenri
p2834
aVhenrietta
p2835
aVhenshaw
p2836
aVherb
p2837
aVhered
p2838
aVheritag
p2839
aVhermit
p2840
aVhero
p2841
aVhewlett
p2842
aVhi
p2843
aVhidden
p2844
aVhide
p2845
aVhigh
p2846
aVhigher
p2847
aVhighest
p2848
aVhighland
p2849
aVhighli
p2850
aVhighlight
p2851
aVhighlit
p2852
aVhike
p2853
aVhilari
p2854
aVhill
p2855
aVhinder
p2856
aVhine
p2857
aVhing
p2858
aVhinton
p2859
aVhip
p2860
aVhire
p2861
aVhiroshima
p2862
aVhispan
p2863
aVhistor
p2864
aVhistori
p2865
aVhistorian
p2866
aVhit
p2867
aVhitachi
p2868
aVhitler
p2869
aVho
p2870
aVhobbi
p2871
aVhobbit
p2872
aVhockey
p2873
aVhoe
p2874
aVhokki
p2875
aVhold
p2876
aVholder
p2877
aVhole
p2878
aVholiday
p2879
aVholist
p2880
aVholli
p2881
aVhollow
p2882
aVholocaust
p2883
aVhome
p2884
aVhomecom
p2885
aVhomeless
p2886
aVhomemad
p2887
aVhomer
p2888
aVhomeroom
p2889
aVhometown
p2890
aVhomework
p2891
aVhomey
p2892
aVhomonym
p2893
aVhomophon
p2894
aVhone
p2895
aVhonest
p2896
aVhoney
p2897
aVhonor
p2898
aVhood
p2899
aVhook
p2900
aVhoop
p2901
aVhoosier
p2902
aVhoot
p2903
aVhop
p2904
aVhope
p2905
aVhopscotch
p2906
aVhorizon
p2907
aVhorn
p2908
aVhorribl
p2909
aVhorror
p2910
aVhors
p2911
aVhorsesho
p2912
aVhorton
p2913
aVhose
p2914
aVhospit
p2915
aVhosseini
p2916
aVhost
p2917
aVhot
p2918
aVhotel
p2919
aVhotplat
p2920
aVhour
p2921
aVhous
p2922
aVhousehold
p2923
aVhousekeep
p2924
aVhouston
p2925
aVhoward
p2926
aVhowe
p2927
aVhowev
p2928
aVhp
p2929
aVhr
p2930
aVhs
p2931
aVhtm
p2932
aVhttp
p2933
aVhub
p2934
aVhuck
p2935
aVhuckleberri
p2936
aVhudson
p2937
aVhug
p2938
aVhuge
p2939
aVhugh
p2940
aVhugo
p2941
aVhula
p2942
aVhuman
p2943
aVhumidifi
p2944
aVhumor
p2945
aVhundr
p2946
aVhung
p2947
aVhunger
p2948
aVhungri
p2949
aVhunt
p2950
aVhurrican
p2951
aVhurston
p2952
aVhurt
p2953
aVhut
p2954
aVhydrat
p2955
aVhydrochlor
p2956
aVhydropon
p2957
aVhygien
p2958
aVhygromet
p2959
aVhyperact
p2960
aVib
p2961
aVibook
p2962
aVice
p2963
aVid
p2964
aVidaho
p2965
aVidea
p2966
aVideal
p2967
aVideapad
p2968
aVident
p2969
aVidentif
p2970
aVidentifi
p2971
aVidiom
p2972
aVidiot
p2973
aViditarod
p2974
aVie
p2975
aViep
p2976
aVignit
p2977
aVihom
p2978
aVii
p2979
aVill
p2980
aVillinoi
p2981
aVillumin
p2982
aVillustr
p2983
aVim
p2984
aVimac
p2985
aVimag
p2986
aVimageri
p2987
aVimagin
p2988
aVimmedi
p2989
aVimmens
p2990
aVimmers
p2991
aVimmigr
p2992
aVimmort
p2993
aVimovi
p2994
aVimpact
p2995
aVimpair
p2996
aVimped
p2997
aVimper
p2998
aVimplement
p2999
aVimplic
p3000
aVimpliment
p3001
aVimport
p3002
aVimportantli
p3003
aVimposs
p3004
aVimpoverish
p3005
aVimpress
p3006
aVimprint
p3007
aVimprov
p3008
aVimprovis
p3009
aVin
p3010
aVinabl
p3011
aVinaccess
p3012
aVinappropri
p3013
aVinaugur
p3014
aVinbox
p3015
aVinc
p3016
aVincarcer
p3017
aVincent
p3018
aVinch
p3019
aVincid
p3020
aVinclement
p3021
aVinclin
p3022
aVinclud
p3023
aVinclus
p3024
aVincom
p3025
aVincomplet
p3026
aVincorpor
p3027
aVincorrect
p3028
aVincreas
p3029
aVincreasingli
p3030
aVincred
p3031
aVincub
p3032
aVindepend
p3033
aVindex
p3034
aVindia
p3035
aVindian
p3036
aVindiana
p3037
aVindianapoli
p3038
aVindic
p3039
aVindigen
p3040
aVindividu
p3041
aVindoor
p3042
aVindustri
p3043
aVinertia
p3044
aVinexpens
p3045
aVinfant
p3046
aVinfer
p3047
aVinferenc
p3048
aVinfest
p3049
aVinfin
p3050
aVinfinit
p3051
aVinflat
p3052
aVinflect
p3053
aVinfluenc
p3054
aVinfo
p3055
aVinfocu
p3056
aVinform
p3057
aVinfrar
p3058
aVinfus
p3059
aVingal
p3060
aVingredi
p3061
aVinherit
p3062
aVinhibit
p3063
aViniti
p3064
aVinjuri
p3065
aVinjustic
p3066
aVink
p3067
aVinkheart
p3068
aVinkjet
p3069
aVinkpad
p3070
aVinlin
p3071
aVinner
p3072
aVinnov
p3073
aVinnumer
p3074
aVinord
p3075
aVinput
p3076
aVinquir
p3077
aVinquiri
p3078
aVinsect
p3079
aVinsid
p3080
aVinsight
p3081
aVinspir
p3082
aVinspiron
p3083
aVinstal
p3084
aVinstant
p3085
aVinstantli
p3086
aVinstead
p3087
aVinstil
p3088
aVinstitut
p3089
aVinstruct
p3090
aVinstructor
p3091
aVinstrument
p3092
aVinstuct
p3093
aVinstument
p3094
aVinsul
p3095
aVinsur
p3096
aVinteg
p3097
aVintegr
p3098
aVintellectu
p3099
aVintellig
p3100
aVintend
p3101
aVintens
p3102
aVinter
p3103
aVinteract
p3104
aVinterdisciplinari
p3105
aVintereact
p3106
aVinterest
p3107
aVinterfac
p3108
aVinterfer
p3109
aVintergr
p3110
aVinterior
p3111
aVintermedi
p3112
aVintern
p3113
aVinternet
p3114
aVinternship
p3115
aVinterperson
p3116
aVinterpret
p3117
aVinterrupt
p3118
aVintersect
p3119
aVintervent
p3120
aVinterview
p3121
aVinterwrit
p3122
aVintim
p3123
aVintimid
p3124
aVinton
p3125
aVintrest
p3126
aVintric
p3127
aVintrigu
p3128
aVintro
p3129
aVintroduc
p3130
aVintroduct
p3131
aVintroductori
p3132
aVinvalu
p3133
aVinvent
p3134
aVinventor
p3135
aVinventori
p3136
aVinvertebr
p3137
aVinvest
p3138
aVinvestig
p3139
aVinvigor
p3140
aVinvis
p3141
aVinvisibleshield
p3142
aVinvit
p3143
aVinvolv
p3144
aVipad
p3145
aVipad2
p3146
aVipod
p3147
aViran
p3148
aViraq
p3149
aVirespond
p3150
aVirig
p3151
aViron
p3152
aVisabel
p3153
aVishmael
p3154
aVisland
p3155
aVisn
p3156
aVisol
p3157
aVissu
p3158
aVistep
p3159
aVitali
p3160
aVitalian
p3161
aVitem
p3162
aVitouch
p3163
aVitun
p3164
aViv
p3165
aVivan
p3166
aVivi
p3167
aVixl
p3168
aVjack
p3169
aVjackbox
p3170
aVjacket
p3171
aVjacki
p3172
aVjackson
p3173
aVjacob
p3174
aVjacquelin
p3175
aVjag
p3176
aVjake
p3177
aVjam
p3178
aVjame
p3179
aVjan
p3180
aVjane
p3181
aVjansen
p3182
aVjanuari
p3183
aVjapan
p3184
aVjapanes
p3185
aVjar
p3186
aVjason
p3187
aVjava
p3188
aVjay
p3189
aVjazz
p3190
aVjean
p3191
aVjeann
p3192
aVjeff
p3193
aVjelli
p3194
aVjenga
p3195
aVjeopardi
p3196
aVjericho
p3197
aVjerom
p3198
aVjerri
p3199
aVjersey
p3200
aVjet
p3201
aVjewel
p3202
aVjewelri
p3203
aVjfk
p3204
aVjig
p3205
aVjim
p3206
aVjimenez
p3207
aVjingl
p3208
aVjob
p3209
aVjoey
p3210
aVjohn
p3211
aVjohnni
p3212
aVjohnson
p3213
aVjoin
p3214
aVjoint
p3215
aVjoke
p3216
aVjonathan
p3217
aVjone
p3218
aVjoplin
p3219
aVjoseph
p3220
aVjot
p3221
aVjournal
p3222
aVjournalist
p3223
aVjourney
p3224
aVjoy
p3225
aVjr
p3226
aVjudg
p3227
aVjudi
p3228
aVjuic
p3229
aVjuicer
p3230
aVjuli
p3231
aVjulia
p3232
aVjuliet
p3233
aVjuliu
p3234
aVjumbo
p3235
aVjump
p3236
aVjumpdriv
p3237
aVjumper
p3238
aVjumprop
p3239
aVjumpstart
p3240
aVjunction
p3241
aVjune
p3242
aVjungl
p3243
aVjuni
p3244
aVjunior
p3245
aVjunk
p3246
aVjurass
p3247
aVjustic
p3248
aVjvc
p3249
aVkaffir
p3250
aVkagan
p3251
aVkaplan
p3252
aVkaraok
p3253
aVkaren
p3254
aVkart
p3255
aVkate
p3256
aVkatherin
p3257
aVkathryn
p3258
aVkatrina
p3259
aVkazoo
p3260
aVkeat
p3261
aVkeep
p3262
aVkeeper
p3263
aVkeepsak
p3264
aVkeller
p3265
aVken
p3266
aVkept
p3267
aVkettl
p3268
aVkettlebel
p3269
aVkevin
p3270
aVkey
p3271
aVkeyboard
p3272
aVkeypad
p3273
aVkhale
p3274
aVkhan
p3275
aVkick
p3276
aVkickbal
p3277
aVkickbox
p3278
aVkid
p3279
aVkidd
p3280
aVkiddi
p3281
aVkiddo
p3282
aVkidney
p3283
aVkidspac
p3284
aVkill
p3285
aVkiller
p3286
aVkiln
p3287
aVkind
p3288
aVkinder
p3289
aVkindergarten
p3290
aVkindergartn
p3291
aVkindergaten
p3292
aVkindl
p3293
aVkinect
p3294
aVkinest
p3295
aVkinesthet
p3296
aVkinet
p3297
aVking
p3298
aVkingdom
p3299
aVkingston
p3300
aVkinney
p3301
aVkit
p3302
aVkitchen
p3303
aVkite
p3304
aVkk
p3305
aVkleenex
p3306
aVknead
p3307
aVknee
p3308
aVknew
p3309
aVknex
p3310
aVknife
p3311
aVknight
p3312
aVknit
p3313
aVknive
p3314
aVknow
p3315
aVknowledg
p3316
aVknowleg
p3317
aVknown
p3318
aVkoala
p3319
aVkodak
p3320
aVkore
p3321
aVkyro
p3322
aVla
p3323
aVlab
p3324
aVlabel
p3325
aVlabor
p3326
aVlaboratori
p3327
aVlabquest
p3328
aVlabtop
p3329
aVlace
p3330
aVlack
p3331
aVlacross
p3332
aVladder
p3333
aVladi
p3334
aVladybug
p3335
aVlagoon
p3336
aVlake
p3337
aVlakeshor
p3338
aVlamin
p3339
aVlamott
p3340
aVlamp
p3341
aVland
p3342
aVlandfil
p3343
aVlandform
p3344
aVlandmark
p3345
aVlandscap
p3346
aVlang
p3347
aVlangaug
p3348
aVlangston
p3349
aVlanguag
p3350
aVlantern
p3351
aVlanyard
p3352
aVlap
p3353
aVlapboard
p3354
aVlapel
p3355
aVlaptop
p3356
aVlarg
p3357
aVlarger
p3358
aVlargest
p3359
aVlarva
p3360
aVlaser
p3361
aVlaserjet
p3362
aVlast
p3363
aVlastli
p3364
aVlatch
p3365
aVlate
p3366
aVlater
p3367
aVlatest
p3368
aVlatex
p3369
aVlatin
p3370
aVlatino
p3371
aVlatitud
p3372
aVlatter
p3373
aVlaugh
p3374
aVlaunch
p3375
aVlauncher
p3376
aVlaundri
p3377
aVlaura
p3378
aVlauri
p3379
aVlavali
p3380
aVlaw
p3381
aVlawrenc
p3382
aVlay
p3383
aVlayer
p3384
aVlayout
p3385
aVlb
p3386
aVlcd
p3387
aVle
p3388
aVlead
p3389
aVleader
p3390
aVleadership
p3391
aVleaf
p3392
aVleagu
p3393
aVleak
p3394
aVlean
p3395
aVleap
p3396
aVleapdesk
p3397
aVleapfrog
p3398
aVleapmat
p3399
aVleappad
p3400
aVleappad2
p3401
aVleapread
p3402
aVleapster
p3403
aVleapster2
p3404
aVleaptrack
p3405
aVlear
p3406
aVlearn
p3407
aVlearner
p3408
aVlearnin
p3409
aVleast
p3410
aVleather
p3411
aVleav
p3412
aVlebron
p3413
aVlectern
p3414
aVlectur
p3415
aVled
p3416
aVledger
p3417
aVlee
p3418
aVleft
p3419
aVleftov
p3420
aVleg
p3421
aVlegaci
p3422
aVlegal
p3423
aVlegend
p3424
aVlego
p3425
aVleisur
p3426
aVlemonad
p3427
aVlen
p3428
aVlend
p3429
aVlength
p3430
aVlenova
p3431
aVlenovo
p3432
aVlens
p3433
aVleon
p3434
aVleopard
p3435
aVless
p3436
aVlessen
p3437
aVlesson
p3438
aVlet
p3439
aVletter
p3440
aVlettuc
p3441
aVlevel
p3442
aVlever
p3443
aVleverag
p3444
aVlewi
p3445
aVlexia
p3446
aVlexicon
p3447
aVlexil
p3448
aVlexmark
p3449
aVliberti
p3450
aVlibrari
p3451
aVlibrarian
p3452
aVlicens
p3453
aVlid
p3454
aVlie
p3455
aVlife
p3456
aVlifecycl
p3457
aVlifelik
p3458
aVlifelong
p3459
aVlifeproof
p3460
aVlifeskil
p3461
aVlifestyl
p3462
aVlifetim
p3463
aVlift
p3464
aVligatur
p3465
aVlight
p3466
aVlighter
p3467
aVlighthous
p3468
aVlightn
p3469
aVlightweight
p3470
aVlike
p3471
aVlili
p3472
aVlilli
p3473
aVlima
p3474
aVlimit
p3475
aVlincoln
p3476
aVline
p3477
aVlinear
p3478
aVliner
p3479
aVlink
p3480
aVlinoleum
p3481
aVlion
p3482
aVliquid
p3483
aVlist
p3484
aVlisten
p3485
aVlit
p3486
aVlite
p3487
aVliter
p3488
aVliteraci
p3489
aVliterari
p3490
aVliteratur
p3491
aVlitmu
p3492
aVlittl
p3493
aVlive
p3494
aVliven
p3495
aVlivescrib
p3496
aVlivestock
p3497
aVlizard
p3498
aVll
p3499
aVlo
p3500
aVload
p3501
aVloaf
p3502
aVloan
p3503
aVlobel
p3504
aVlocal
p3505
aVlocat
p3506
aVlock
p3507
aVlockabl
p3508
aVlocker
p3509
aVlodg
p3510
aVlog
p3511
aVlogger
p3512
aVlogic
p3513
aVlogitech
p3514
aVlogo
p3515
aVloi
p3516
aVlollipop
p3517
aVlondon
p3518
aVlone
p3519
aVlong
p3520
aVlonger
p3521
aVlongitud
p3522
aVlook
p3523
aVloom
p3524
aVloop
p3525
aVloos
p3526
aVlooseleaf
p3527
aVloot
p3528
aVlord
p3529
aVlore
p3530
aVlose
p3531
aVloss
p3532
aVlost
p3533
aVlot
p3534
aVlotto
p3535
aVlou
p3536
aVloud
p3537
aVloui
p3538
aVlouisiana
p3539
aVloung
p3540
aVlounger
p3541
aVloup
p3542
aVlove
p3543
aVlover
p3544
aVlow
p3545
aVlower
p3546
aVlowercas
p3547
aVlowest
p3548
aVlowri
p3549
aVluci
p3550
aVluck
p3551
aVlucki
p3552
aVlumber
p3553
aVlummi
p3554
aVlunch
p3555
aVlunchtim
p3556
aVlung
p3557
aVlupica
p3558
aVluther
p3559
aVluxuri
p3560
aVlynn
p3561
aVlyric
p3562
aVlysol
p3563
aVmac
p3564
aVmacaroni
p3565
aVmacbeth
p3566
aVmacbook
p3567
aVmach
p3568
aVmachin
p3569
aVmacintosh
p3570
aVmaclachlan
p3571
aVmad
p3572
aVmade
p3573
aVmagazin
p3574
aVmage
p3575
aVmagenta
p3576
aVmagic
p3577
aVmagician
p3578
aVmagiscop
p3579
aVmagna
p3580
aVmagnatil
p3581
aVmagnet
p3582
aVmagnifi
p3583
aVmail
p3584
aVmailbox
p3585
aVmain
p3586
aVmainli
p3587
aVmainstream
p3588
aVmaintain
p3589
aVmainten
p3590
aVmajor
p3591
aVmake
p3592
aVmakeov
p3593
aVmaker
p3594
aVmakerbot
p3595
aVmakeup
p3596
aVmakey
p3597
aVmalala
p3598
aVmalcolm
p3599
aVmale
p3600
aVmall
p3601
aVmallet
p3602
aVmalon
p3603
aVmammal
p3604
aVmammalian
p3605
aVman
p3606
aVmanag
p3607
aVmandala
p3608
aVmandarin
p3609
aVmandat
p3610
aVmandatori
p3611
aVmandolin
p3612
aVmaneuv
p3613
aVmanga
p3614
aVmango
p3615
aVmani
p3616
aVmaniac
p3617
aVmanikin
p3618
aVmanila
p3619
aVmanipul
p3620
aVmaniupl
p3621
aVmanner
p3622
aVmanti
p3623
aVmanual
p3624
aVmanufactur
p3625
aVmanur
p3626
aVmanuscript
p3627
aVmanzanar
p3628
aVmap
p3629
aVmar
p3630
aVmaraca
p3631
aVmarathon
p3632
aVmarbl
p3633
aVmarch
p3634
aVmare
p3635
aVmargaret
p3636
aVmargin
p3637
aVmari
p3638
aVmaria
p3639
aVmariachi
p3640
aVmarimba
p3641
aVmarin
p3642
aVmario
p3643
aVmaritim
p3644
aVmark
p3645
aVmarker
p3646
aVmarkerboard
p3647
aVmarket
p3648
aVmartin
p3649
aVmarvel
p3650
aVmaryland
p3651
aVmascot
p3652
aVmask
p3653
aVmass
p3654
aVmaster
p3655
aVmasteri
p3656
aVmasterpiec
p3657
aVmat
p3658
aVmatch
p3659
aVmateri
p3660
aVmath
p3661
aVmathemat
p3662
aVmathematician
p3663
aVmathmat
p3664
aVmathshark
p3665
aVmathstart
p3666
aVmatilda
p3667
aVmatt
p3668
aVmatter
p3669
aVmatur
p3670
aVmau
p3671
aVmax
p3672
aVmaxim
p3673
aVmaximum
p3674
aVmay
p3675
aVmayan
p3676
aVmayb
p3677
aVmayer
p3678
aVmayo
p3679
aVmaze
p3680
aVmca
p3681
aVmcgraw
p3682
aVmeal
p3683
aVmean
p3684
aVmeaning
p3685
aVmeant
p3686
aVmeantim
p3687
aVmeasur
p3688
aVmeat
p3689
aVmeatbal
p3690
aVmechan
p3691
aVmed
p3692
aVmedal
p3693
aVmedia
p3694
aVmediat
p3695
aVmedic
p3696
aVmedicin
p3697
aVmediev
p3698
aVmedit
p3699
aVmedium
p3700
aVmeet
p3701
aVmega
p3702
aVmegaphon
p3703
aVmegapixel
p3704
aVmeiosi
p3705
aVmellophon
p3706
aVmelod
p3707
aVmelodi
p3708
aVmelt
p3709
aVmem
p3710
aVmember
p3711
aVmembership
p3712
aVmemo
p3713
aVmemoir
p3714
aVmemor
p3715
aVmemorex
p3716
aVmemori
p3717
aVmemphi
p3718
aVmen
p3719
aVmental
p3720
aVmention
p3721
aVmentor
p3722
aVmenu
p3723
aVmerchant
p3724
aVmerriam
p3725
aVmesh
p3726
aVmesopotamia
p3727
aVmess
p3728
aVmessag
p3729
aVmesseng
p3730
aVmessi
p3731
aVmet
p3732
aVmetal
p3733
aVmetallophon
p3734
aVmetamorphosi
p3735
aVmeter
p3736
aVmeteri
p3737
aVmethod
p3738
aVmetric
p3739
aVmexican
p3740
aVmexico
p3741
aVmeyer
p3742
aVmi
p3743
aVmiami
p3744
aVmic
p3745
aVmice
p3746
aVmichael
p3747
aVmichigan
p3748
aVmicro
p3749
aVmicrob
p3750
aVmicrobiolog
p3751
aVmicrofib
p3752
aVmicroorgan
p3753
aVmicrophon
p3754
aVmicropipett
p3755
aVmicroscop
p3756
aVmicroslid
p3757
aVmicrosoft
p3758
aVmicrowav
p3759
aVmid
p3760
aVmiddl
p3761
aVmidi
p3762
aVmidsumm
p3763
aVmight
p3764
aVmighti
p3765
aVmike
p3766
aVmil
p3767
aVmild
p3768
aVmildr
p3769
aVmile
p3770
aVmileston
p3771
aVmilitari
p3772
aVmilk
p3773
aVmilkwe
p3774
aVmill
p3775
aVmiller
p3776
aVmillion
p3777
aVmilwauke
p3778
aVmimic
p3779
aVmimio
p3780
aVmimioteach
p3781
aVmind
p3782
aVmindset
p3783
aVmindstorm
p3784
aVmine
p3785
aVminer
p3786
aVmini
p3787
aVminiatur
p3788
aVminidv
p3789
aVminim
p3790
aVminimum
p3791
aVminneapoli
p3792
aVminnesota
p3793
aVmino
p3794
aVminor
p3795
aVminu
p3796
aVminut
p3797
aVmiracl
p3798
aVmiracul
p3799
aVmiro
p3800
aVmirror
p3801
aVmiscellan
p3802
aVmischief
p3803
aVmiser
p3804
aVmisplac
p3805
aVmiss
p3806
aVmission
p3807
aVmississippi
p3808
aVmissouri
p3809
aVmistak
p3810
aVmisus
p3811
aVmitosi
p3812
aVmitt
p3813
aVmitten
p3814
aVmix
p3815
aVmixer
p3816
aVml
p3817
aVmla
p3818
aVmm
p3819
aVmn
p3820
aVmo
p3821
aVmobi
p3822
aVmobil
p3823
aVmock
p3824
aVmockingbird
p3825
aVmockingjay
p3826
aVmod
p3827
aVmodal
p3828
aVmode
p3829
aVmodel
p3830
aVmodem
p3831
aVmoder
p3832
aVmodern
p3833
aVmodifi
p3834
aVmodul
p3835
aVmodular
p3836
aVmoistur
p3837
aVmold
p3838
aVmolecul
p3839
aVmolecular
p3840
aVmolli
p3841
aVmom
p3842
aVmoment
p3843
aVmomentum
p3844
aVmonarch
p3845
aVmonday
p3846
aVmonet
p3847
aVmonetari
p3848
aVmoney
p3849
aVmoni
p3850
aVmonitor
p3851
aVmonk
p3852
aVmonkey
p3853
aVmonopoli
p3854
aVmonster
p3855
aVmontessori
p3856
aVmontgomeri
p3857
aVmonth
p3858
aVmonthli
p3859
aVmonument
p3860
aVmoo
p3861
aVmood
p3862
aVmoodi
p3863
aVmoon
p3864
aVmoor
p3865
aVmop
p3866
aVmoral
p3867
aVmoreov
p3868
aVmorn
p3869
aVmorri
p3870
aVmorrison
p3871
aVmortenson
p3872
aVmosaic
p3873
aVmoss
p3874
aVmostli
p3875
aVmother
p3876
aVmotif
p3877
aVmotion
p3878
aVmotiv
p3879
aVmotor
p3880
aVmotorcycl
p3881
aVmotorola
p3882
aVmotto
p3883
aVmount
p3884
aVmountain
p3885
aVmous
p3886
aVmousetrap
p3887
aVmouth
p3888
aVmouthpiec
p3889
aVmovabl
p3890
aVmove
p3891
aVmoveabl
p3892
aVmovement
p3893
aVmovi
p3894
aVmovin
p3895
aVmozart
p3896
aVmp3
p3897
aVmr
p3898
aVms
p3899
aVmsa
p3900
aVmst
p3901
aVmt
p3902
aVmuch
p3903
aVmudg
p3904
aVmuerto
p3905
aVmuffin
p3906
aVmug
p3907
aVmulch
p3908
aVmulcher
p3909
aVmulitipl
p3910
aVmulitpl
p3911
aVmulti
p3912
aVmulticolor
p3913
aVmulticultur
p3914
aVmultifunct
p3915
aVmultilevel
p3916
aVmultimedia
p3917
aVmultimet
p3918
aVmultimod
p3919
aVmultipl
p3920
aVmultipli
p3921
aVmultipurpos
p3922
aVmultisensori
p3923
aVmultistep
p3924
aVmultitud
p3925
aVmummi
p3926
aVmunsch
p3927
aVmural
p3928
aVmurder
p3929
aVmuscl
p3930
aVmuscular
p3931
aVmuse
p3932
aVmuseum
p3933
aVmusic
p3934
aVmusician
p3935
aVmusicianship
p3936
aVmust
p3937
aVmute
p3938
aVmutual
p3939
aVmychron
p3940
aVmyer
p3941
aVmyplat
p3942
aVmyriad
p3943
aVmysteri
p3944
aVmyth
p3945
aVmytholog
p3946
aVn1
p3947
aVn10
p3948
aVn2
p3949
aVn20
p3950
aVn25
p3951
aVn3
p3952
aVn30
p3953
aVn4
p3954
aVn40
p3955
aVn5
p3956
aVn50
p3957
aVn6
p3958
aVna
p3959
aVnabi
p3960
aVnaddit
p3961
aVnail
p3962
aVnake
p3963
aVnall
p3964
aVnalso
p3965
aVname
p3966
aVnamepl
p3967
aVnan
p3968
aVnanci
p3969
aVnand
p3970
aVnano
p3971
aVnaomi
p3972
aVnapkin
p3973
aVnarnia
p3974
aVnarr
p3975
aVnarrat
p3976
aVnaruto
p3977
aVnasa
p3978
aVnasco
p3979
aVnate
p3980
aVnation
p3981
aVnativ
p3982
aVnatur
p3983
aVnavig
p3984
aVnaylor
p3985
aVnbasic
p3986
aVnbi
p3987
aVnc
p3988
aVnclassroom
p3989
aVnd
p3990
aVneal
p3991
aVnear
p3992
aVnearbi
p3993
aVnearli
p3994
aVneat
p3995
aVneatdesk
p3996
aVneatli
p3997
aVnecess
p3998
aVnecessari
p3999
aVnecessarili
p4000
aVneck
p4001
aVnecklac
p4002
aVnee
p4003
aVneed4
p4004
aVneeda
p4005
aVneedi
p4006
aVneedl
p4007
aVneg
p4008
aVneglect
p4009
aVneighbor
p4010
aVneighborhood
p4011
aVneil
p4012
aVneo
p4013
aVneon
p4014
aVnervou
p4015
aVnest
p4016
aVnet
p4017
aVnetbook
p4018
aVnetwork
p4019
aVneutral
p4020
aVnevada
p4021
aVnever
p4022
aVnew
p4023
aVnewberi
p4024
aVnewberri
p4025
aVnewcom
p4026
aVnewer
p4027
aVnewest
p4028
aVnewli
p4029
aVnews
p4030
aVnewscast
p4031
aVnewslett
p4032
aVnewsmagazin
p4033
aVnewspap
p4034
aVnewsprint
p4035
aVnewton
p4036
aVnex
p4037
aVnext
p4038
aVnexu
p4039
aVnfinal
p4040
aVnfor
p4041
aVnhelp
p4042
aVnhope
p4043
aVnhowev
p4044
aVnhttp
p4045
aVni
p4046
aVnib
p4047
aVnicaragua
p4048
aVnice
p4049
aVnickel
p4050
aVnif
p4051
aVnight
p4052
aVnightli
p4053
aVnikon
p4054
aVnile
p4055
aVnimh
p4056
aVnin
p4057
aVnine
p4058
aVnineti
p4059
aVninja
p4060
aVnintendo
p4061
aVninth
p4062
aVnipper
p4063
aVnit
p4064
aVnitrat
p4065
aVnitril
p4066
aVnitrogen
p4067
aVnjask
p4068
aVnm
p4069
aVnmi
p4070
aVnmost
p4071
aVnmr
p4072
aVnobel
p4073
aVnobl
p4074
aVnobodi
p4075
aVnois
p4076
aVnoisi
p4077
aVnomine
p4078
aVnon
p4079
aVnonc
p4080
aVnone
p4081
aVnonfict
p4082
aVnonliv
p4083
aVnonprofit
p4084
aVnonverb
p4085
aVnoodl
p4086
aVnook
p4087
aVnookcolor
p4088
aVnormal
p4089
aVnorth
p4090
aVnortheast
p4091
aVnorthern
p4092
aVnotat
p4093
aVnotch
p4094
aVnote
p4095
aVnotebook
p4096
aVnotepad
p4097
aVnotetak
p4098
aVnoth
p4099
aVnotic
p4100
aVnoun
p4101
aVnour
p4102
aVnourish
p4103
aVnovel
p4104
aVnovella
p4105
aVnowher
p4106
aVnozzl
p4107
aVnpencil
p4108
aVnpleas
p4109
aVnprinter
p4110
aVnschool
p4111
aVnscienc
p4112
aVnsincer
p4113
aVnspire
p4114
aVnstudent
p4115
aVnthank
p4116
aVnthe
p4117
aVnthere
p4118
aVnthese
p4119
aVnthey
p4120
aVnthi
p4121
aVnto
p4122
aVnuclear
p4123
aVnumber
p4124
aVnumer
p4125
aVnumeraci
p4126
aVnumeroff
p4127
aVnun
p4128
aVnurs
p4129
aVnurseri
p4130
aVnurtur
p4131
aVnuse
p4132
aVnut
p4133
aVnutrient
p4134
aVnutrit
p4135
aVnutriti
p4136
aVnwe
p4137
aVnwhat
p4138
aVnwhite
p4139
aVnwill
p4140
aVnwith
p4141
aVnwrite
p4142
aVnxt
p4143
aVny
p4144
aVnyc
p4145
aVnye
p4146
aVnylon
p4147
aVnyour
p4148
aVoak
p4149
aVobama
p4150
aVobes
p4151
aVobject
p4152
aVobserv
p4153
aVobsolet
p4154
aVobstacl
p4155
aVobtain
p4156
aVoccas
p4157
aVoccasion
p4158
aVoccup
p4159
aVoccupi
p4160
aVoccur
p4161
aVocean
p4162
aVoctav
p4163
aVoctob
p4164
aVodd
p4165
aVodor
p4166
aVodyssey
p4167
aVoedipu
p4168
aVoffer
p4169
aVoffic
p4170
aVofficejet
p4171
aVoffici
p4172
aVoften
p4173
aVoh
p4174
aVohlon
p4175
aVoil
p4176
aVokay
p4177
aVold
p4178
aVolder
p4179
aVoliv
p4180
aVolivia
p4181
aVolymp
p4182
aVolympiad
p4183
aVolympian
p4184
aVolympu
p4185
aVomnikin
p4186
aVomnivor
p4187
aVone
p4188
aVongo
p4189
aVonlin
p4190
aVonto
p4191
aVopen
p4192
aVoper
p4193
aVopera
p4194
aVopinion
p4195
aVoppertun
p4196
aVopportun
p4197
aVoppos
p4198
aVopposit
p4199
aVoppress
p4200
aVopprotun
p4201
aVoprah
p4202
aVoptic
p4203
aVoptim
p4204
aVoptimum
p4205
aVoption
p4206
aVoral
p4207
aVorang
p4208
aVorbit
p4209
aVorca
p4210
aVorchard
p4211
aVorchestra
p4212
aVorder
p4213
aVorderli
p4214
aVordinari
p4215
aVoregon
p4216
aVorff
p4217
aVorg
p4218
aVorgan
p4219
aVorganel
p4220
aVorgani
p4221
aVorganiz
p4222
aVorgin
p4223
aVorient
p4224
aVorigami
p4225
aVorigin
p4226
aVorlando
p4227
aVorphan
p4228
aVorphanag
p4229
aVosborn
p4230
aVoscar
p4231
aVothello
p4232
aVother
p4233
aVotherwis
p4234
aVotter
p4235
aVotterbox
p4236
aVottoman
p4237
aVout
p4238
aVoutcom
p4239
aVoutdat
p4240
aVoutdoor
p4241
aVouter
p4242
aVoutfit
p4243
aVouting
p4244
aVoutlast
p4245
aVoutlet
p4246
aVoutlier
p4247
aVoutlin
p4248
aVoutlook
p4249
aVoutput
p4250
aVoutsid
p4251
aVoutstand
p4252
aVoutward
p4253
aVoval
p4254
aVoven
p4255
aVoveral
p4256
aVovercam
p4257
aVovercom
p4258
aVoverhead
p4259
aVoverlay
p4260
aVoverlook
p4261
aVovernight
p4262
aVovers
p4263
aVoversea
p4264
aVoverstimul
p4265
aVovertim
p4266
aVoverview
p4267
aVoverwhelm
p4268
aVowen
p4269
aVowl
p4270
aVown
p4271
aVownership
p4272
aVoxford
p4273
aVoxygen
p4274
aVoye
p4275
aVoz
p4276
aVpa
p4277
aVpablo
p4278
aVpace
p4279
aVpacif
p4280
aVpack
p4281
aVpackag
p4282
aVpackard
p4283
aVpacket
p4284
aVpact
p4285
aVpad
p4286
aVpaddl
p4287
aVpage
p4288
aVpageant
p4289
aVpaid
p4290
aVpail
p4291
aVpain
p4292
aVpaint
p4293
aVpaintbrush
p4294
aVpainter
p4295
aVpair
p4296
aVpajama
p4297
aVpal
p4298
aVpalacio
p4299
aVpalett
p4300
aVpalm
p4301
aVpamphlet
p4302
aVpan
p4303
aVpanason
p4304
aVpancak
p4305
aVpanda
p4306
aVpandigit
p4307
aVpanel
p4308
aVpant
p4309
aVpantri
p4310
aVpaper
p4311
aVpaperback
p4312
aVpaperclip
p4313
aVpaperless
p4314
aVpaperwork
p4315
aVpapier
p4316
aVparachut
p4317
aVparad
p4318
aVparafilm
p4319
aVparagraph
p4320
aVparallel
p4321
aVparaprofession
p4322
aVparcc
p4323
aVparchment
p4324
aVparent
p4325
aVpari
p4326
aVpark
p4327
aVpart
p4328
aVpartak
p4329
aVparti
p4330
aVpartial
p4331
aVparticip
p4332
aVparticular
p4333
aVparticularli
p4334
aVpartit
p4335
aVpartner
p4336
aVpartnership
p4337
aVparttim
p4338
aVpasco
p4339
aVpass
p4340
aVpassag
p4341
aVpassion
p4342
aVpassport
p4343
aVpast
p4344
aVpastel
p4345
aVpatch
p4346
aVpaterson
p4347
aVpath
p4348
aVpathfind
p4349
aVpathway
p4350
aVpatient
p4351
aVpatricia
p4352
aVpatrick
p4353
aVpatriot
p4354
aVpatrol
p4355
aVpatter
p4356
aVpattern
p4357
aVpatterson
p4358
aVpatti
p4359
aVpaul
p4360
aVpaulo
p4361
aVpaulsen
p4362
aVpavilion
p4363
aVpay
p4364
aVpb
p4365
aVpbi
p4366
aVpc
p4367
aVpdf
p4368
aVpe
p4369
aVpea
p4370
aVpeac
p4371
aVpeach
p4372
aVpeak
p4373
aVpearl
p4374
aVpeat
p4375
aVpebbl
p4376
aVpedal
p4377
aVpedomet
p4378
aVpeek
p4379
aVpeel
p4380
aVpeer
p4381
aVpeg
p4382
aVpegboard
p4383
aVpellet
p4384
aVpen
p4385
aVpencil
p4386
aVpendulum
p4387
aVpenguin
p4388
aVpenmanship
p4389
aVpennant
p4390
aVpenni
p4391
aVpennsylvania
p4392
aVpenpal
p4393
aVpentamino
p4394
aVpentomino
p4395
aVpeopl
p4396
aVper
p4397
aVpercent
p4398
aVpercentag
p4399
aVpercept
p4400
aVperceptu
p4401
aVperci
p4402
aVpercuss
p4403
aVpercussionist
p4404
aVperenni
p4405
aVperez
p4406
aVperfect
p4407
aVperfectli
p4408
aVperform
p4409
aVperhap
p4410
aVperimet
p4411
aVperiod
p4412
aVperipher
p4413
aVperk
p4414
aVperman
p4415
aVpermit
p4416
aVperpetu
p4417
aVpersepoli
p4418
aVpersever
p4419
aVperson
p4420
aVpersona
p4421
aVperspect
p4422
aVpersuas
p4423
aVpertain
p4424
aVpet
p4425
aVpete
p4426
aVpeter
p4427
aVpeterson
p4428
aVpetri
p4429
aVph
p4430
aVphantom
p4431
aVphase
p4432
aVphi
p4433
aVphiladelphia
p4434
aVphilippin
p4435
aVphilosophi
p4436
aVphoenix
p4437
aVphone
p4438
aVphonem
p4439
aVphonet
p4440
aVphonic
p4441
aVphonolog
p4442
aVphoto
p4443
aVphotocopi
p4444
aVphotog
p4445
aVphotograph
p4446
aVphotographi
p4447
aVphotojourn
p4448
aVphotoshop
p4449
aVphotosmart
p4450
aVphotosynthesi
p4451
aVphrase
p4452
aVphylli
p4453
aVphysic
p4454
aVphysiolog
p4455
aVpi
p4456
aVpiano
p4457
aVpic
p4458
aVpicasso
p4459
aVpiccolo
p4460
aVpick
p4461
aVpicnic
p4462
aVpictur
p4463
aVpie
p4464
aVpiec
p4465
aVpier
p4466
aVpig
p4467
aVpigeon
p4468
aVpiggi
p4469
aVpigman
p4470
aVpile
p4471
aVpilgrim
p4472
aVpillow
p4473
aVpilot
p4474
aVpin
p4475
aVpinch
p4476
aVping
p4477
aVpink
p4478
aVpinnel
p4479
aVpinni
p4480
aVpint
p4481
aVpioneer
p4482
aVpipe
p4483
aVpipet
p4484
aVpipett
p4485
aVpiqu
p4486
aVpirat
p4487
aVpit
p4488
aVpitch
p4489
aVpizza
p4490
aVpizzazz
p4491
aVpk
p4492
aVpkg
p4493
aVpla
p4494
aVplace
p4495
aVplacemat
p4496
aVplacement
p4497
aVplain
p4498
aVplan
p4499
aVplane
p4500
aVplanet
p4501
aVplanetarium
p4502
aVplank
p4503
aVplanner
p4504
aVplant
p4505
aVplanter
p4506
aVplasma
p4507
aVplaster
p4508
aVplastic
p4509
aVplate
p4510
aVplatform
p4511
aVplay
p4512
aVplayabl
p4513
aVplayaway
p4514
aVplayback
p4515
aVplaybook
p4516
aVplaydoh
p4517
aVplaydough
p4518
aVplayer
p4519
aVplayground
p4520
aVplayhous
p4521
aVplaylist
p4522
aVplaystix
p4523
aVplaytim
p4524
aVplaywright
p4525
aVpleas
p4526
aVpleasant
p4527
aVpleasur
p4528
aVplenti
p4529
aVplethora
p4530
aVplier
p4531
aVplinko
p4532
aVplot
p4533
aVplow
p4534
aVplt
p4535
aVplu
p4536
aVplug
p4537
aVplush
p4538
aVplywood
p4539
aVpocket
p4540
aVpod
p4541
aVpodcast
p4542
aVpodg
p4543
aVpodium
p4544
aVpoe
p4545
aVpoem
p4546
aVpoet
p4547
aVpoetri
p4548
aVpoint
p4549
aVpointer
p4550
aVpoison
p4551
aVpolacco
p4552
aVpolar
p4553
aVpole
p4554
aVpoli
p4555
aVpolic
p4556
aVpolish
p4557
aVpolit
p4558
aVpoll
p4559
aVpollut
p4560
aVpolo
p4561
aVpolydron
p4562
aVpolym
p4563
aVpom
p4564
aVpon
p4565
aVponcho
p4566
aVpond
p4567
aVpong
p4568
aVponi
p4569
aVpool
p4570
aVpoor
p4571
aVpoorli
p4572
aVpop
p4573
aVpopcorn
p4574
aVpope
p4575
aVpoppi
p4576
aVpoppin
p4577
aVpoppleton
p4578
aVpopsicl
p4579
aVpopul
p4580
aVpopular
p4581
aVport
p4582
aVportabl
p4583
aVportal
p4584
aVportfolio
p4585
aVportion
p4586
aVportrait
p4587
aVpose
p4588
aVposit
p4589
aVpossess
p4590
aVpossibl
p4591
aVpost
p4592
aVpostag
p4593
aVpostal
p4594
aVpostcard
p4595
aVposter
p4596
aVposterboard
p4597
aVpostur
p4598
aVpot
p4599
aVpotassium
p4600
aVpotato
p4601
aVpotenti
p4602
aVpotter
p4603
aVpotteri
p4604
aVpouch
p4605
aVpound
p4606
aVpour
p4607
aVpoverti
p4608
aVpowder
p4609
aVpower
p4610
aVpowerlit
p4611
aVpowerpoint
p4612
aVpowershot
p4613
aVpractic
p4614
aVprairi
p4615
aVprais
p4616
aVpray
p4617
aVpre
p4618
aVprecalculu
p4619
aVpreciou
p4620
aVprecis
p4621
aVpredic
p4622
aVpredict
p4623
aVprefer
p4624
aVprefix
p4625
aVpreform
p4626
aVpregnanc
p4627
aVprejudic
p4628
aVprek
p4629
aVprekindergarten
p4630
aVprelutski
p4631
aVpremier
p4632
aVpremium
p4633
aVprentic
p4634
aVprep
p4635
aVprepar
p4636
aVpreparatori
p4637
aVpreschool
p4638
aVprescrib
p4639
aVpresen
p4640
aVpresent
p4641
aVpreserv
p4642
aVpresid
p4643
aVpresidenti
p4644
aVpress
p4645
aVpressur
p4646
aVpreston
p4647
aVpretend
p4648
aVpretti
p4649
aVpretzel
p4650
aVpreval
p4651
aVprevent
p4652
aVpreview
p4653
aVpreviou
p4654
aVprevious
p4655
aVprey
p4656
aVprice
p4657
aVpriceless
p4658
aVpride
p4659
aVprimari
p4660
aVprimarili
p4661
aVprimer
p4662
aVprinc
p4663
aVprincess
p4664
aVprincip
p4665
aVprincipl
p4666
aVprint
p4667
aVprintabl
p4668
aVprinter
p4669
aVprintmak
p4670
aVprintout
p4671
aVprintshop
p4672
aVprior
p4673
aVprioriti
p4674
aVprism
p4675
aVprismacolor
p4676
aVprison
p4677
aVprivaci
p4678
aVprivat
p4679
aVprivileg
p4680
aVprize
p4681
aVpro
p4682
aVproactiv
p4683
aVprobabl
p4684
aVprobe
p4685
aVprobewar
p4686
aVproblem
p4687
aVprobook
p4688
aVprocedur
p4689
aVprocess
p4690
aVprocessor
p4691
aVproduc
p4692
aVproduct
p4693
aVprofess
p4694
aVprofession
p4695
aVprofessor
p4696
aVprofici
p4697
aVprofil
p4698
aVprofit
p4699
aVprofound
p4700
aVprogram
p4701
aVprogramm
p4702
aVprogress
p4703
aVprohibit
p4704
aVproject
p4705
aVprojectil
p4706
aVprojector
p4707
aVproloque2go
p4708
aVproloquo2go
p4709
aVpromethean
p4710
aVpromin
p4711
aVpromis
p4712
aVpromot
p4713
aVprompt
p4714
aVprone
p4715
aVpronounc
p4716
aVpronounci
p4717
aVpronunci
p4718
aVproof
p4719
aVproofread
p4720
aVprop
p4721
aVpropaganda
p4722
aVpropel
p4723
aVproper
p4724
aVproperli
p4725
aVproperti
p4726
aVproport
p4727
aVpropos
p4728
aVproscop
p4729
aVprose
p4730
aVprotagonist
p4731
aVprotect
p4732
aVprotector
p4733
aVprotein
p4734
aVprototyp
p4735
aVprotractor
p4736
aVproud
p4737
aVproudli
p4738
aVprove
p4739
aVproven
p4740
aVprovid
p4741
aVprovok
p4742
aVproxim
p4743
aVps
p4744
aVpsa
p4745
aVpsycholog
p4746
aVpta
p4747
aVpublic
p4748
aVpublish
p4749
aVpuddi
p4750
aVpuff
p4751
aVpulitz
p4752
aVpull
p4753
aVpulley
p4754
aVpuls
p4755
aVpump
p4756
aVpumpkin
p4757
aVpunch
p4758
aVpuncher
p4759
aVpunctuat
p4760
aVpupil
p4761
aVpupilcam
p4762
aVpuppet
p4763
aVpuppetri
p4764
aVpuppi
p4765
aVpurchas
p4766
aVpure
p4767
aVpurifi
p4768
aVpurpl
p4769
aVpurpos
p4770
aVpurs
p4771
aVpursu
p4772
aVpursuit
p4773
aVpush
p4774
aVput
p4775
aVputter
p4776
aVputti
p4777
aVpuzzl
p4778
aVpvc
p4779
aVpyramid
p4780
aVpyrex
p4781
aVpythagorean
p4782
aVqr
p4783
aVquad
p4784
aVquadcopt
p4785
aVquadrat
p4786
aVqualifi
p4787
aVqualiti
p4788
aVquantit
p4789
aVquantiti
p4790
aVquart
p4791
aVquarter
p4792
aVquarterli
p4793
aVqueen
p4794
aVquench
p4795
aVquest
p4796
aVquestion
p4797
aVquick
p4798
aVquicker
p4799
aVquickest
p4800
aVquicki
p4801
aVquickli
p4802
aVquiet
p4803
aVquietli
p4804
aVquill
p4805
aVquilt
p4806
aVquimbi
p4807
aVquit
p4808
aVquiz
p4809
aVquizmo
p4810
aVquizz
p4811
aVquizzillion
p4812
aVquot
p4813
aVrabbit
p4814
aVrace
p4815
aVracer
p4816
aVrachel
p4817
aVrack
p4818
aVracket
p4819
aVracquet
p4820
aVradic
p4821
aVradio
p4822
aVradiomet
p4823
aVradiu
p4824
aVrae
p4825
aVraffl
p4826
aVrag
p4827
aVrail
p4828
aVrailroad
p4829
aVrain
p4830
aVrainbow
p4831
aVrainforest
p4832
aVraini
p4833
aVrainstick
p4834
aVrais
p4835
aVraisin
p4836
aVrake
p4837
aVraleigh
p4838
aVralli
p4839
aVralph
p4840
aVram
p4841
aVramona
p4842
aVramp
p4843
aVran
p4844
aVranch
p4845
aVrand
p4846
aVrandi
p4847
aVrandom
p4848
aVrang
p4849
aVranger
p4850
aVrank
p4851
aVrap
p4852
aVrapid
p4853
aVrapidli
p4854
aVraptor
p4855
aVrare
p4856
aVrasp
p4857
aVraspberri
p4858
aVrat
p4859
aVrate
p4860
aVrather
p4861
aVratio
p4862
aVraw
p4863
aVrawl
p4864
aVray
p4865
aVraz
p4866
aVrc
p4867
aVre
p4868
aVreach
p4869
aVreaction
p4870
aVread
p4871
aVreadabl
p4872
aVreader
p4873
aVreadi
p4874
aVreadili
p4875
aVreadinga
p4876
aVreal
p4877
aVrealia
p4878
aVrealist
p4879
aVrealiti
p4880
aVrealiz
p4881
aVrealli
p4882
aVrealm
p4883
aVream
p4884
aVreap
p4885
aVreason
p4886
aVrebel
p4887
aVrecal
p4888
aVreceiv
p4889
aVrecent
p4890
aVrecept
p4891
aVreceptacl
p4892
aVrecess
p4893
aVrecharg
p4894
aVreciev
p4895
aVrecip
p4896
aVrecipi
p4897
aVrecogn
p4898
aVrecognit
p4899
aVrecommend
p4900
aVreconstruct
p4901
aVrecord
p4902
aVrecov
p4903
aVrecoveri
p4904
aVrecreat
p4905
aVrecruit
p4906
aVrectangl
p4907
aVrectangular
p4908
aVrecumb
p4909
aVrecycl
p4910
aVred
p4911
aVredeem
p4912
aVredirect
p4913
aVreduc
p4914
aVreduct
p4915
aVreed
p4916
aVreef
p4917
aVreenact
p4918
aVrefer
p4919
aVrefil
p4920
aVrefin
p4921
aVreflect
p4922
aVreflex
p4923
aVrefractomet
p4924
aVrefresh
p4925
aVrefridger
p4926
aVrefriger
p4927
aVrefuge
p4928
aVrefurbish
p4929
aVregard
p4930
aVregardless
p4931
aVregent
p4932
aVreggio
p4933
aVregion
p4934
aVregist
p4935
aVregistr
p4936
aVregroup
p4937
aVregul
p4938
aVregular
p4939
aVregularli
p4940
aVrehears
p4941
aVreinforc
p4942
aVrejuven
p4943
aVrekenrek
p4944
aVrekindl
p4945
aVrel
p4946
aVrelat
p4947
aVrelationship
p4948
aVrelax
p4949
aVreleas
p4950
aVrelev
p4951
aVreli
p4952
aVreliabl
p4953
aVrelief
p4954
aVreligion
p4955
aVrelish
p4956
aVreloc
p4957
aVreluct
p4958
aVremain
p4959
aVremaind
p4960
aVremark
p4961
aVremedi
p4962
aVrememb
p4963
aVremembr
p4964
aVremind
p4965
aVremo
p4966
aVremot
p4967
aVremov
p4968
aVrenaiss
p4969
aVrender
p4970
aVrenew
p4971
aVrenov
p4972
aVrenown
p4973
aVrent
p4974
aVrental
p4975
aVreopen
p4976
aVrepair
p4977
aVrepeat
p4978
aVrepertoir
p4979
aVrepetit
p4980
aVreplac
p4981
aVreplenish
p4982
aVreplic
p4983
aVreplica
p4984
aVrepons
p4985
aVreport
p4986
aVrepres
p4987
aVrepresent
p4988
aVreproduc
p4989
aVreproduct
p4990
aVreptil
p4991
aVrequest
p4992
aVrequir
p4993
aVreread
p4994
aVresearch
p4995
aVresembl
p4996
aVreserch
p4997
aVreserv
p4998
aVresid
p4999
aVresili
p5000
aVresist
p5001
aVresistor
p5002
aVresolut
p5003
aVresolv
p5004
aVreson
p5005
aVresouc
p5006
aVresourc
p5007
aVresours
p5008
aVrespect
p5009
aVrespir
p5010
aVrespond
p5011
aVrespons
p5012
aVrest
p5013
aVrestaur
p5014
aVrestock
p5015
aVrestor
p5016
aVrestrict
p5017
aVrestroom
p5018
aVresult
p5019
aVresum
p5020
aVresuppli
p5021
aVresurrect
p5022
aVretain
p5023
aVreteach
p5024
aVretel
p5025
aVretent
p5026
aVretina
p5027
aVretreat
p5028
aVretriev
p5029
aVreturn
p5030
aVreus
p5031
aVreusabl
p5032
aVrevamp
p5033
aVreveal
p5034
aVrevers
p5035
aVreview
p5036
aVrevis
p5037
aVrevit
p5038
aVreviv
p5039
aVrevolut
p5040
aVrevolutionari
p5041
aVrevolv
p5042
aVreward
p5043
aVrewrit
p5044
aVrex
p5045
aVrhyme
p5046
aVrhythm
p5047
aVrhythmic
p5048
aVri
p5049
aVribbon
p5050
aVribsi
p5051
aVrica
p5052
aVrice
p5053
aVrich
p5054
aVrichard
p5055
aVrichardson
p5056
aVricher
p5057
aVrick
p5058
aVriddl
p5059
aVride
p5060
aVrider
p5061
aVright
p5062
aVrigor
p5063
aVriker
p5064
aVriley
p5065
aVrim
p5066
aVring
p5067
aVriordan
p5068
aVrip
p5069
aVrise
p5070
aVriser
p5071
aVrisk
p5072
aVriver
p5073
aVrl
p5074
aVrm
p5075
aVrna
p5076
aVroad
p5077
aVroald
p5078
aVroam
p5079
aVroast
p5080
aVrobert
p5081
aVrobin
p5082
aVrobinson
p5083
aVrobot
p5084
aVrock
p5085
aVrocker
p5086
aVrocket
p5087
aVrocketri
p5088
aVrockstar
p5089
aVrod
p5090
aVrodent
p5091
aVrodriguez
p5092
aVroger
p5093
aVrole
p5094
aVroll
p5095
aVroller
p5096
aVrom
p5097
aVroman
p5098
aVrome
p5099
aVromeo
p5100
aVroof
p5101
aVrooftop
p5102
aVroom
p5103
aVroot
p5104
aVrope
p5105
aVrosa
p5106
aVrose
p5107
aVrosetta
p5108
aVrosi
p5109
aVrosin
p5110
aVross
p5111
aVrotari
p5112
aVrotat
p5113
aVrote
p5114
aVrough
p5115
aVround
p5116
aVrouter
p5117
aVroutin
p5118
aVrover
p5119
aVrow
p5120
aVrowl
p5121
aVroyal
p5122
aVrs
p5123
aVrti
p5124
aVrub
p5125
aVrubber
p5126
aVrubberband
p5127
aVrube
p5128
aVrubi
p5129
aVrubric
p5130
aVrug
p5131
aVruin
p5132
aVrule
p5133
aVruler
p5134
aVrun
p5135
aVrunaway
p5136
aVrunner
p5137
aVrunway
p5138
aVrural
p5139
aVrush
p5140
aVrussian
p5141
aVrust
p5142
aVrw
p5143
aVryan
p5144
aVrye
p5145
aVryhm
p5146
aVrylant
p5147
aVsachar
p5148
aVsack
p5149
aVsacr
p5150
aVsacramento
p5151
aVsadako
p5152
aVsadli
p5153
aVsafari
p5154
aVsafe
p5155
aVsafer
p5156
aVsafeti
p5157
aVsag
p5158
aVsaga
p5159
aVsaid
p5160
aVsail
p5161
aVsakura
p5162
aVsalari
p5163
aVsale
p5164
aVsalesman
p5165
aVsalin
p5166
aVsalli
p5167
aVsalt
p5168
aVsam
p5169
aVsampl
p5170
aVsampler
p5171
aVsamsung
p5172
aVsan
p5173
aVsanctuari
p5174
aVsand
p5175
aVsandbox
p5176
aVsandi
p5177
aVsandisk
p5178
aVsandpap
p5179
aVsandra
p5180
aVsandwich
p5181
aVsanit
p5182
aVsanitari
p5183
aVsanta
p5184
aVsarah
p5185
aVsarajevo
p5186
aVsargent
p5187
aVsasquatch
p5188
aVsat
p5189
aVsatellit
p5190
aVsatisfi
p5191
aVsaturday
p5192
aVsave
p5193
aVsaver
p5194
aVsavvi
p5195
aVsaw
p5196
aVsawyer
p5197
aVsax
p5198
aVsaxophon
p5199
aVsay
p5200
aVsb
p5201
aVsc
p5202
aVscaffold
p5203
aVscale
p5204
aVscalpel
p5205
aVscan
p5206
aVscanner
p5207
aVscantron
p5208
aVscarc
p5209
aVscare
p5210
aVscarf
p5211
aVscari
p5212
aVscarlet
p5213
aVscarv
p5214
aVscat
p5215
aVscaveng
p5216
aVscenario
p5217
aVscene
p5218
aVsceneri
p5219
aVscenic
p5220
aVscent
p5221
aVschedul
p5222
aVscholar
p5223
aVscholarli
p5224
aVscholarship
p5225
aVscholast
p5226
aVscholorship
p5227
aVschool
p5228
aVschooler
p5229
aVschoolwid
p5230
aVschoolwork
p5231
aVschoolyard
p5232
aVscienc
p5233
aVsciencesauru
p5234
aVscientif
p5235
aVscientist
p5236
aVscissor
p5237
aVscoop
p5238
aVscooter
p5239
aVscope
p5240
aVscore
p5241
aVscoreboard
p5242
aVscorpion
p5243
aVscotch
p5244
aVscott
p5245
aVscout
p5246
aVscrabbl
p5247
aVscrambl
p5248
aVscrap
p5249
aVscrapbook
p5250
aVscratch
p5251
aVscreen
p5252
aVscrew
p5253
aVscrimmag
p5254
aVscript
p5255
aVscroll
p5256
aVscuba
p5257
aVsculpt
p5258
aVsculptur
p5259
aVsd
p5260
aVsea
p5261
aVseagat
p5262
aVseal
p5263
aVsealer
p5264
aVseam
p5265
aVseamlessli
p5266
aVsearch
p5267
aVseason
p5268
aVseat
p5269
aVsecond
p5270
aVsecondari
p5271
aVsecret
p5272
aVsection
p5273
aVsecur
p5274
aVsediment
p5275
aVsee
p5276
aVseed
p5277
aVseedfolk
p5278
aVseedl
p5279
aVseek
p5280
aVseem
p5281
aVseen
p5282
aVsegment
p5283
aVselect
p5284
aVself
p5285
aVsell
p5286
aVseller
p5287
aVseltzer
p5288
aVsemest
p5289
aVseminar
p5290
aVsenc
p5291
aVsend
p5292
aVsenior
p5293
aVsens
p5294
aVsensat
p5295
aVsensit
p5296
aVsensor
p5297
aVsensori
p5298
aVsensorybal
p5299
aVsent
p5300
aVsentenc
p5301
aVsepar
p5302
aVseper
p5303
aVseptemb
p5304
aVsequel
p5305
aVsequenc
p5306
aVsequin
p5307
aVserger
p5308
aVseri
p5309
aVseriou
p5310
aVserious
p5311
aVserv
p5312
aVserver
p5313
aVservic
p5314
aVsession
p5315
aVset
p5316
aVsetter
p5317
aVsetup
p5318
aVseuss
p5319
aVseven
p5320
aVseventeen
p5321
aVseventh
p5322
aVsever
p5323
aVseverli
p5324
aVsew
p5325
aVsexual
p5326
aVsfz
p5327
aVshack
p5328
aVshade
p5329
aVshadow
p5330
aVshake
p5331
aVshaker
p5332
aVshakespear
p5333
aVshakespearean
p5334
aVshannon
p5335
aVshape
p5336
aVshaper
p5337
aVshare
p5338
aVshark
p5339
aVsharon
p5340
aVsharp
p5341
aVsharpen
p5342
aVsharper
p5343
aVsharpi
p5344
aVsharpner
p5345
aVshear
p5346
aVshed
p5347
aVsheep
p5348
aVsheet
p5349
aVsheila
p5350
aVsheker
p5351
aVshel
p5352
aVshelf
p5353
aVshell
p5354
aVshelter
p5355
aVshelv
p5356
aVsherman
p5357
aVshield
p5358
aVshift
p5359
aVshiloh
p5360
aVshimmer
p5361
aVshin
p5362
aVshine
p5363
aVship
p5364
aVshirt
p5365
aVshoe
p5366
aVshoot
p5367
aVshop
p5368
aVshore
p5369
aVshort
p5370
aVshortag
p5371
aVshorti
p5372
aVshoulder
p5373
aVshovel
p5374
aVshow
p5375
aVshowcas
p5376
aVshower
p5377
aVshowm
p5378
aVshown
p5379
aVshred
p5380
aVshredder
p5381
aVshrew
p5382
aVshrink
p5383
aVshrub
p5384
aVshuffl
p5385
aVshusterman
p5386
aVshut
p5387
aVshuttl
p5388
aVsibeliu
p5389
aVsick
p5390
aVside
p5391
aVsidewalk
p5392
aVsideway
p5393
aVsierra
p5394
aVsiev
p5395
aVsift
p5396
aVsight
p5397
aVsign
p5398
aVsignal
p5399
aVsignific
p5400
aVsignificantli
p5401
aVsilent
p5402
aVsilhouett
p5403
aVsilk
p5404
aVsilli
p5405
aVsilver
p5406
aVsilverstein
p5407
aVsimilar
p5408
aVsimon
p5409
aVsimpl
p5410
aVsimpli
p5411
aVsimplifi
p5412
aVsimul
p5413
aVsimultan
p5414
aVsin
p5415
aVsinc
p5416
aVsincer
p5417
aVsing
p5418
aVsingapor
p5419
aVsinger
p5420
aVsingl
p5421
aVsink
p5422
aVsir
p5423
aVsister
p5424
aVsit
p5425
aVsite
p5426
aVsituat
p5427
aVsix
p5428
aVsixth
p5429
aVsize
p5430
aVskate
p5431
aVskateboard
p5432
aVskelet
p5433
aVskeleton
p5434
aVskene
p5435
aVsketch
p5436
aVsketchbook
p5437
aVsketchpad
p5438
aVskill
p5439
aVskillet
p5440
aVskin
p5441
aVskinni
p5442
aVskip
p5443
aVskit
p5444
aVskull
p5445
aVsky
p5446
aVskylark
p5447
aVskype
p5448
aVskyscrap
p5449
aVslab
p5450
aVslam
p5451
aVslate
p5452
aVslaughterhous
p5453
aVslave
p5454
aVslaveri
p5455
aVsled
p5456
aVsleep
p5457
aVsleev
p5458
aVsleigh
p5459
aVslide
p5460
aVslider
p5461
aVslideshow
p5462
aVslightli
p5463
aVsling
p5464
aVslip
p5465
aVslot
p5466
aVslow
p5467
aVslowli
p5468
aVslr
p5469
aVsmall
p5470
aVsmaller
p5471
aVsmart
p5472
aVsmartboard
p5473
aVsmarter
p5474
aVsmartmus
p5475
aVsmartpen
p5476
aVsmartphon
p5477
aVsmarttech
p5478
aVsmartview
p5479
aVsmell
p5480
aVsmelli
p5481
aVsmencil
p5482
aVsmile
p5483
aVsmith
p5484
aVsmithsonian
p5485
aVsmock
p5486
aVsmoke
p5487
aVsmooth
p5488
aVsmoothi
p5489
aVsmoothli
p5490
aVsnack
p5491
aVsnail
p5492
aVsnake
p5493
aVsnap
p5494
aVsnapshot
p5495
aVsnare
p5496
aVsnow
p5497
aVsnowbal
p5498
aVsnowi
p5499
aVsoap
p5500
aVsoar
p5501
aVsoccer
p5502
aVsoccerbal
p5503
aVsocial
p5504
aVsocieti
p5505
aVsocioeconom
p5506
aVsock
p5507
aVsocket
p5508
aVsocrat
p5509
aVsoda
p5510
aVsodium
p5511
aVsofa
p5512
aVsoft
p5513
aVsoftbal
p5514
aVsoften
p5515
aVsoftwar
p5516
aVsoil
p5517
aVsojourn
p5518
aVsol
p5519
aVsolar
p5520
aVsolarpl
p5521
aVsolarscop
p5522
aVsold
p5523
aVsolder
p5524
aVsoldier
p5525
aVsole
p5526
aVsolid
p5527
aVsolidifi
p5528
aVsolo
p5529
aVsolut
p5530
aVsolv
p5531
aVsolver
p5532
aVsomeon
p5533
aVsometh
p5534
aVsometim
p5535
aVsomewher
p5536
aVson
p5537
aVsong
p5538
aVsongbook
p5539
aVsoni
p5540
aVsonnet
p5541
aVsoon
p5542
aVsooth
p5543
aVsophist
p5544
aVsophocl
p5545
aVsophomor
p5546
aVsoprano
p5547
aVsorri
p5548
aVsort
p5549
aVsorter
p5550
aVsoto
p5551
aVsoul
p5552
aVsound
p5553
aVsoup
p5554
aVsourc
p5555
aVsouth
p5556
aVsouthern
p5557
aVsox
p5558
aVspace
p5559
aVspacer
p5560
aVspaciou
p5561
aVspade
p5562
aVspain
p5563
aVspan
p5564
aVspangler
p5565
aVspanish
p5566
aVspare
p5567
aVspark
p5568
aVsparkl
p5569
aVspatial
p5570
aVspatula
p5571
aVspeak
p5572
aVspeakaboo
p5573
aVspeaker
p5574
aVspeci
p5575
aVspecial
p5576
aVspecialist
p5577
aVspecialti
p5578
aVspecif
p5579
aVspecimen
p5580
aVspectrophotomet
p5581
aVspectroscop
p5582
aVspectrum
p5583
aVsped
p5584
aVspeech
p5585
aVspeed
p5586
aVspeedbal
p5587
aVspell
p5588
aVspeller
p5589
aVspend
p5590
aVspent
p5591
aVsphere
p5592
aVspi
p5593
aVspice
p5594
aVspider
p5595
aVspiderman
p5596
aVspiderwick
p5597
aVspill
p5598
aVspin
p5599
aVspine
p5600
aVspinelli
p5601
aVspinner
p5602
aVspiral
p5603
aVspirit
p5604
aVsplash
p5605
aVsplat
p5606
aVsplendid
p5607
aVsplit
p5608
aVsplitter
p5609
aVspoken
p5610
aVspong
p5611
aVsponsor
p5612
aVsponsorship
p5613
aVspontan
p5614
aVspool
p5615
aVspoon
p5616
aVsport
p5617
aVsportsmanship
p5618
aVspot
p5619
aVspotlight
p5620
aVspray
p5621
aVspread
p5622
aVspreadsheet
p5623
aVspring
p5624
aVspringboard
p5625
aVsprout
p5626
aVspruce
p5627
aVspur
p5628
aVsquad
p5629
aVsquar
p5630
aVsqueez
p5631
aVsquishi
p5632
aVsquoosh
p5633
aVsra
p5634
aVssr
p5635
aVst
p5636
aVstabil
p5637
aVstabl
p5638
aVstack
p5639
aVstackabl
p5640
aVstacker
p5641
aVstaff
p5642
aVstage
p5643
aVstagecraft
p5644
aVstain
p5645
aVstainless
p5646
aVstake
p5647
aVstallion
p5648
aVstamina
p5649
aVstamp
p5650
aVstamper
p5651
aVstand
p5652
aVstandard
p5653
aVstanley
p5654
aVstapl
p5655
aVstapler
p5656
aVstar
p5657
aVstarboard
p5658
aVstarfish
p5659
aVstargirl
p5660
aVstarri
p5661
aVstarrmatica
p5662
aVstart
p5663
aVstarter
p5664
aVstat
p5665
aVstate
p5666
aVstatement
p5667
aVstatewid
p5668
aVstatic
p5669
aVstation
p5670
aVstationari
p5671
aVstationeri
p5672
aVstatist
p5673
aVstatu
p5674
aVstay
p5675
aVstduent
p5676
aVsteadi
p5677
aVsteal
p5678
aVstealer
p5679
aVsteam
p5680
aVsteamer
p5681
aVsteel
p5682
aVsteinbeck
p5683
aVstellar
p5684
aVstem
p5685
aVstencil
p5686
aVstep
p5687
aVstephani
p5688
aVstephen
p5689
aVstepheni
p5690
aVstereo
p5691
aVstereomicroscop
p5692
aVsteril
p5693
aVsteve
p5694
aVsteven
p5695
aVsteward
p5696
aVstick
p5697
aVsticker
p5698
aVsticki
p5699
aVstill
p5700
aVstilt
p5701
aVstilton
p5702
aVstimul
p5703
aVstimuli
p5704
aVstine
p5705
aVstink
p5706
aVstinki
p5707
aVstir
p5708
aVstirrer
p5709
aVstix
p5710
aVstock
p5711
aVstoichiometri
p5712
aVstolen
p5713
aVstomp
p5714
aVstone
p5715
aVstool
p5716
aVstop
p5717
aVstopper
p5718
aVstopwatch
p5719
aVstorag
p5720
aVstore
p5721
aVstori
p5722
aVstoria
p5723
aVstorm
p5724
aVstoryboard
p5725
aVstorybook
p5726
aVstorytel
p5727
aVstorytim
p5728
aVstorywork
p5729
aVstove
p5730
aVstraight
p5731
aVstrain
p5732
aVstrainer
p5733
aVstrand
p5734
aVstrang
p5735
aVstrap
p5736
aVstrateg
p5737
aVstrategi
p5738
aVstraw
p5739
aVstreak
p5740
aVstream
p5741
aVstreamer
p5742
aVstreamlin
p5743
aVstreet
p5744
aVstreetcar
p5745
aVstrenghten
p5746
aVstrength
p5747
aVstrengthen
p5748
aVstress
p5749
aVstretch
p5750
aVstretcher
p5751
aVstretchi
p5752
aVstricken
p5753
aVstring
p5754
aVstrip
p5755
aVstripe
p5756
aVstripper
p5757
aVstrive
p5758
aVstroke
p5759
aVstrong
p5760
aVstronger
p5761
aVstructur
p5762
aVstruggl
p5763
aVstuart
p5764
aVstuck
p5765
aVstud
p5766
aVstude
p5767
aVstuden
p5768
aVstudi
p5769
aVstudio
p5770
aVstudnet
p5771
aVstuf
p5772
aVstuff
p5773
aVstun
p5774
aVsturdi
p5775
aVstyle
p5776
aVstylu
p5777
aVstylus
p5778
aVstyrofoam
p5779
aVsub
p5780
aVsubject
p5781
aVsubmers
p5782
aVsubmiss
p5783
aVsubmit
p5784
aVsubscript
p5785
aVsubsid
p5786
aVsubsript
p5787
aVsubstanc
p5788
aVsubstitut
p5789
aVsubtract
p5790
aVsuburban
p5791
aVsucceed
p5792
aVsucces
p5793
aVsuccess
p5794
aVsuccessful
p5795
aVsuccul
p5796
aVsuce
p5797
aVsucess
p5798
aVsuck
p5799
aVsudent
p5800
aVsue
p5801
aVsuess
p5802
aVsuffer
p5803
aVsuffic
p5804
aVsuffici
p5805
aVsuffix
p5806
aVsugar
p5807
aVsuggest
p5808
aVsuit
p5809
aVsuitabl
p5810
aVsumm
p5811
aVsummar
p5812
aVsummari
p5813
aVsummer
p5814
aVsun
p5815
aVsuncatch
p5816
aVsunday
p5817
aVsunshin
p5818
aVsunspott
p5819
aVsuper
p5820
aVsuperhero
p5821
aVsupermarket
p5822
aVsupernatur
p5823
aVsupersci
p5824
aVsuperstar
p5825
aVsupervis
p5826
aVsupli
p5827
aVsuppl
p5828
aVsupplement
p5829
aVsupplementari
p5830
aVsuppli
p5831
aVsuppliment
p5832
aVsupport
p5833
aVsuppos
p5834
aVsure
p5835
aVsurf
p5836
aVsurfac
p5837
aVsurg
p5838
aVsurpris
p5839
aVsurround
p5840
aVsurvey
p5841
aVsurviv
p5842
aVsurvivor
p5843
aVsusan
p5844
aVsuspend
p5845
aVsuspens
p5846
aVsustain
p5847
aVsuzann
p5848
aVswab
p5849
aVswallow
p5850
aVswamp
p5851
aVswan
p5852
aVswap
p5853
aVsweater
p5854
aVsweet
p5855
aVswim
p5856
aVswing
p5857
aVswitch
p5858
aVsyllabl
p5859
aVsylvandal
p5860
aVsymbol
p5861
aVsymmetri
p5862
aVsymphoni
p5863
aVsymposium
p5864
aVsync
p5865
aVsyndrom
p5866
aVsynonym
p5867
aVsynthes
p5868
aVsynthesi
p5869
aVsynthet
p5870
aVsystem
p5871
aVtab
p5872
aVtabbi
p5873
aVtabl
p5874
aVtablet
p5875
aVtabletop
p5876
aVtac
p5877
aVtacki
p5878
aVtackl
p5879
aVtactic
p5880
aVtactil
p5881
aVtadpol
p5882
aVtag
p5883
aVtagboard
p5884
aVtailor
p5885
aVtaiwan
p5886
aVtak
p5887
aVtake
p5888
aVtaken
p5889
aVtale
p5890
aVtalent
p5891
aVtalk
p5892
aVtalki
p5893
aVtall
p5894
aVtambourin
p5895
aVtame
p5896
aVtampa
p5897
aVtangerin
p5898
aVtangibl
p5899
aVtangl
p5900
aVtango
p5901
aVtangram
p5902
aVtank
p5903
aVtap
p5904
aVtape
p5905
aVtarantula
p5906
aVtarget
p5907
aVtask
p5908
aVtast
p5909
aVtatter
p5910
aVtattoo
p5911
aVtaught
p5912
aVtax
p5913
aVtaylor
p5914
aVte
p5915
aVtea
p5916
aVteach
p5917
aVteachabl
p5918
aVteacher
p5919
aVteam
p5920
aVteambuild
p5921
aVteammat
p5922
aVteamwork
p5923
aVtear
p5924
aVteas
p5925
aVtech
p5926
aVtechnic
p5927
aVtechniqu
p5928
aVtechnolgi
p5929
aVtechnolog
p5930
aVtechonolog
p5931
aVtecton
p5932
aVteddi
p5933
aVtee
p5934
aVteen
p5935
aVteenag
p5936
aVteeth
p5937
aVteh
p5938
aVtek
p5939
aVtelescop
p5940
aVtelevis
p5941
aVtell
p5942
aVtemper
p5943
aVtempera
p5944
aVtemperatur
p5945
aVtempl
p5946
aVtemplat
p5947
aVtempra
p5948
aVtempura
p5949
aVten
p5950
aVtend
p5951
aVtennesse
p5952
aVtenni
p5953
aVtenor
p5954
aVtens
p5955
aVtension
p5956
aVtent
p5957
aVterabithia
p5958
aVterm
p5959
aVterminolog
p5960
aVterrarium
p5961
aVterribl
p5962
aVterrif
p5963
aVterritori
p5964
aVtest
p5965
aVtester
p5966
aVtestimoni
p5967
aVtether
p5968
aVtetherbal
p5969
aVtexa
p5970
aVtext
p5971
aVtextbook
p5972
aVtextil
p5973
aVtextur
p5974
aVtfk
p5975
aVth
p5976
aVthank
p5977
aVthanksgiv
p5978
aVtheater
p5979
aVtheatr
p5980
aVtheatric
p5981
aVthee
p5982
aVthemat
p5983
aVtheme
p5984
aVtheorem
p5985
aVtheoret
p5986
aVtheori
p5987
aVthera
p5988
aVtherapeut
p5989
aVtherapi
p5990
aVtherapist
p5991
aVtheraputti
p5992
aVtherefor
p5993
aVthermal
p5994
aVthermomet
p5995
aVthesauri
p5996
aVthesauru
p5997
aVthesaurus
p5998
aVthese
p5999
aVthesi
p6000
aVthick
p6001
aVthief
p6002
aVthier
p6003
aVthin
p6004
aVthing
p6005
aVthink
p6006
aVthinker
p6007
aVthinkpad
p6008
aVthird
p6009
aVthirst
p6010
aVthirsti
p6011
aVthirteen
p6012
aVthirti
p6013
aVthoma
p6014
aVthon
p6015
aVthorough
p6016
aVthoroughli
p6017
aVthough
p6018
aVthought
p6019
aVthousand
p6020
aVthread
p6021
aVthreat
p6022
aVthreaten
p6023
aVthree
p6024
aVthrill
p6025
aVthriller
p6026
aVthrive
p6027
aVthroughout
p6028
aVthrougout
p6029
aVthrow
p6030
aVthrown
p6031
aVthru
p6032
aVthu
p6033
aVthumb
p6034
aVthumbal
p6035
aVthunder
p6036
aVti
p6037
aVtic
p6038
aVticket
p6039
aVticonderoga
p6040
aVtide
p6041
aVtidi
p6042
aVtie
p6043
aVtier
p6044
aVtiger
p6045
aVtight
p6046
aVtile
p6047
aVtill
p6048
aVtim
p6049
aVtimber
p6050
aVtime
p6051
aVtimelin
p6052
aVtimer
p6053
aVtimpani
p6054
aVtin
p6055
aVtini
p6056
aVtinikl
p6057
aVtinker
p6058
aVtip
p6059
aVtire
p6060
aVtissu
p6061
aVtitan
p6062
aVtitl
p6063
aVtk
p6064
aVtm
p6065
aVtn
p6066
aVtoad
p6067
aVtoaster
p6068
aVtoday
p6069
aVtoddler
p6070
aVtoe
p6071
aVtogeth
p6072
aVtold
p6073
aVtoler
p6074
aVtolkien
p6075
aVtollbooth
p6076
aVtom
p6077
aVtomato
p6078
aVtomorrow
p6079
aVton
p6080
aVtone
p6081
aVtoner
p6082
aVtong
p6083
aVtongu
p6084
aVtoni
p6085
aVtoobaloo
p6086
aVtook
p6087
aVtool
p6088
aVtoolbox
p6089
aVtoolkit
p6090
aVtoon
p6091
aVtooth
p6092
aVtoothbrush
p6093
aVtoothpast
p6094
aVtop
p6095
aVtopaz
p6096
aVtopic
p6097
aVtopograph
p6098
aVtorn
p6099
aVtornado
p6100
aVtorso
p6101
aVtortois
p6102
aVtoshiba
p6103
aVtoss
p6104
aVtot
p6105
aVtotal
p6106
aVtote
p6107
aVtotem
p6108
aVtouch
p6109
aVtouchpad
p6110
aVtouchscreen
p6111
aVtough
p6112
aVtour
p6113
aVtournament
p6114
aVtoward
p6115
aVtowel
p6116
aVtower
p6117
aVtown
p6118
aVtownsend
p6119
aVtoxic
p6120
aVtoxicolog
p6121
aVtoy
p6122
aVtrace
p6123
aVtrack
p6124
aVtracker
p6125
aVtract
p6126
aVtrade
p6127
aVtradit
p6128
aVtraffic
p6129
aVtragedi
p6130
aVtragic
p6131
aVtrail
p6132
aVtrailer
p6133
aVtrain
p6134
aVtrainer
p6135
aVtrait
p6136
aVtrampolin
p6137
aVtranscript
p6138
aVtransfer
p6139
aVtransform
p6140
aVtransient
p6141
aVtransist
p6142
aVtransistor
p6143
aVtransit
p6144
aVtranslat
p6145
aVtranspar
p6146
aVtransplant
p6147
aVtransport
p6148
aVtrap
p6149
aVtrash
p6150
aVtravel
p6151
aVtray
p6152
aVtreasur
p6153
aVtreat
p6154
aVtreatment
p6155
aVtree
p6156
aVtreehous
p6157
aVtremain
p6158
aVtremend
p6159
aVtrend
p6160
aVtri
p6161
aVtrial
p6162
aVtriangl
p6163
aVtribe
p6164
aVtrick
p6165
aVtricycl
p6166
aVtrifold
p6167
aVtrigger
p6168
aVtrigonometr
p6169
aVtrike
p6170
aVtrilog
p6171
aVtrim
p6172
aVtrimmer
p6173
aVtrio
p6174
aVtrip
p6175
aVtripl
p6176
aVtripod
p6177
aVtriumph
p6178
aVtrombon
p6179
aVtrophi
p6180
aVtroubl
p6181
aVtrout
p6182
aVtrowel
p6183
aVtruck
p6184
aVtrue
p6185
aVtruli
p6186
aVtrumpet
p6187
aVtrundl
p6188
aVtrust
p6189
aVtrustworthi
p6190
aVtruth
p6191
aVtsa
p6192
aVtt
p6193
aVtub
p6194
aVtubano
p6195
aVtube
p6196
aVtuck
p6197
aVtuesday
p6198
aVtug
p6199
aVtulan
p6200
aVtumba
p6201
aVtumbl
p6202
aVtunabl
p6203
aVtune
p6204
aVtuner
p6205
aVtunnel
p6206
aVturbin
p6207
aVturn
p6208
aVturner
p6209
aVturntabl
p6210
aVturtl
p6211
aVtut
p6212
aVtutor
p6213
aVtutori
p6214
aVtv
p6215
aVtwain
p6216
aVtweezer
p6217
aVtwelfth
p6218
aVtwelv
p6219
aVtwenti
p6220
aVtwice
p6221
aVtwig
p6222
aVtwilight
p6223
aVtwin
p6224
aVtwine
p6225
aVtwist
p6226
aVtwister
p6227
aVtwit
p6228
aVtwitter
p6229
aVtwo
p6230
aVtye
p6231
aVtype
p6232
aVtypic
p6233
aVugli
p6234
aVukulel
p6235
aVul
p6236
aVultim
p6237
aVultima
p6238
aVultra
p6239
aVultrahd
p6240
aVumbrella
p6241
aVun
p6242
aVunabl
p6243
aVuncl
p6244
aVunclutt
p6245
aVuncomfort
p6246
aVuncov
p6247
aVundergo
p6248
aVunderground
p6249
aVunderneath
p6250
aVunderp
p6251
aVunderprivileg
p6252
aVunderstand
p6253
aVunderstood
p6254
aVunderwat
p6255
aVundoubtedli
p6256
aVunemploy
p6257
aVunfamiliar
p6258
aVunforgett
p6259
aVunfortun
p6260
aVunifi
p6261
aVunifix
p6262
aVuniform
p6263
aVuninterrupt
p6264
aVuninvit
p6265
aVunion
p6266
aVuniqu
p6267
aVunit
p6268
aVuniti
p6269
aVunivers
p6270
aVunknown
p6271
aVunleash
p6272
aVunless
p6273
aVunlik
p6274
aVunlimit
p6275
aVunlock
p6276
aVuno
p6277
aVunreli
p6278
aVunstopp
p6279
aVuntun
p6280
aVunus
p6281
aVunwant
p6282
aVunwind
p6283
aVup
p6284
aVupcom
p6285
aVupdat
p6286
aVupfront
p6287
aVupgrad
p6288
aVuplift
p6289
aVupload
p6290
aVupon
p6291
aVupper
p6292
aVuppercas
p6293
aVupright
p6294
aVupstair
p6295
aVurban
p6296
aVurg
p6297
aVurgent
p6298
aVus
p6299
aVusa
p6300
aVusabl
p6301
aVusag
p6302
aVusb
p6303
aVuse
p6304
aVuseag
p6305
aVuseless
p6306
aVuser
p6307
aVusual
p6308
aVutah
p6309
aVutensil
p6310
aVutil
p6311
aVuv
p6312
aVva
p6313
aVvacat
p6314
aVvaccuum
p6315
aVvacuum
p6316
aVvaio
p6317
aVvalentin
p6318
aVvalid
p6319
aVvalley
p6320
aVvalu
p6321
aVvaluabl
p6322
aVvalv
p6323
aVvampir
p6324
aVvan
p6325
aVvandal
p6326
aVvane
p6327
aVvari
p6328
aVvariabl
p6329
aVvariat
p6330
aVvarieti
p6331
aVvariey
p6332
aVvariou
p6333
aVvariti
p6334
aVvarnish
p6335
aVvarsiti
p6336
aVvast
p6337
aVvault
p6338
aVvcr
p6339
aVve
p6340
aVvega
p6341
aVveget
p6342
aVveggi
p6343
aVvegtabl
p6344
aVvehicl
p6345
aVvelcro
p6346
aVveloc
p6347
aVvendor
p6348
aVvenic
p6349
aVventur
p6350
aVvenu
p6351
aVverb
p6352
aVverbal
p6353
aVverifi
p6354
aVvermeer
p6355
aVvernier
p6356
aVvers
p6357
aVversatil
p6358
aVversion
p6359
aVversu
p6360
aVvertic
p6361
aVvessel
p6362
aVvest
p6363
aVvestibular
p6364
aVvet
p6365
aVveteran
p6366
aVveterinari
p6367
aVvex
p6368
aVvga
p6369
aVvh
p6370
aVvi
p6371
aVvia
p6372
aVviabl
p6373
aVvibrant
p6374
aVvibrat
p6375
aVvictim
p6376
aVvideo
p6377
aVvideoscop
p6378
aVvideotap
p6379
aVview
p6380
aVviewer
p6381
aVvike
p6382
aVvillag
p6383
aVvincent
p6384
aVvinegar
p6385
aVvintag
p6386
aVvinyl
p6387
aVviola
p6388
aVviolenc
p6389
aVviolet
p6390
aVviolin
p6391
aVvirginia
p6392
aVvirtual
p6393
aVvirus
p6394
aVvisabl
p6395
aVvisibl
p6396
aVvision
p6397
aVvisit
p6398
aVvisitor
p6399
aVvista
p6400
aVvisual
p6401
aVvital
p6402
aVvivid
p6403
aVvmathliv
p6404
aVvocab
p6405
aVvocabulari
p6406
aVvocal
p6407
aVvocat
p6408
aVvoic
p6409
aVvoicethread
p6410
aVvol
p6411
aVvolcano
p6412
aVvolley
p6413
aVvolleybal
p6414
aVvoltag
p6415
aVvolum
p6416
aVvolumetr
p6417
aVvolunt
p6418
aVvoraci
p6419
aVvote
p6420
aVvowel
p6421
aVvoyag
p6422
aVvpk
p6423
aVvs
p6424
aVvue
p6425
aVwacom
p6426
aVwad
p6427
aVwagon
p6428
aVwait
p6429
aVwake
p6430
aVwaldo
p6431
aVwalk
p6432
aVwalker
p6433
aVwalki
p6434
aVwalkman
p6435
aVwall
p6436
aVwallet
p6437
aVwallflow
p6438
aVwalter
p6439
aVwan
p6440
aVwand
p6441
aVwander
p6442
aVwant
p6443
aVwao
p6444
aVwar
p6445
aVward
p6446
aVwardrob
p6447
aVware
p6448
aVwarhol
p6449
aVwarm
p6450
aVwarmer
p6451
aVwarmup
p6452
aVwarp
p6453
aVwarranti
p6454
aVwarrior
p6455
aVwartim
p6456
aVwash
p6457
aVwashabl
p6458
aVwasher
p6459
aVwashington
p6460
aVwast
p6461
aVwastebasket
p6462
aVwastewat
p6463
aVwatch
p6464
aVwatcher
p6465
aVwater
p6466
aVwaterbas
p6467
aVwatercolor
p6468
aVwaterproof
p6469
aVwatersh
p6470
aVwaterway
p6471
aVwatson
p6472
aVwave
p6473
aVwax
p6474
aVway
p6475
aVwaysid
p6476
aVwe
p6477
aVweak
p6478
aVwealth
p6479
aVweapon
p6480
aVwear
p6481
aVweather
p6482
aVweav
p6483
aVweb
p6484
aVwebcam
p6485
aVwebpag
p6486
aVwebquest
p6487
aVwebsit
p6488
aVwebster
p6489
aVwedg
p6490
aVwednesday
p6491
aVweed
p6492
aVweek
p6493
aVweekend
p6494
aVweekli
p6495
aVweeklong
p6496
aVweigh
p6497
aVweight
p6498
aVweird
p6499
aVwelch
p6500
aVwelcom
p6501
aVweldbond
p6502
aVwell
p6503
aVwelti
p6504
aVwent
p6505
aVwest
p6506
aVwestern
p6507
aVwestward
p6508
aVwet
p6509
aVwetland
p6510
aVwhack
p6511
aVwhale
p6512
aVwhammer
p6513
aVwhatev
p6514
aVwheasel
p6515
aVwheel
p6516
aVwheelbarrow
p6517
aVwheelchair
p6518
aVwhenev
p6519
aVwherev
p6520
aVwhether
p6521
aVwhi
p6522
aVwhimsic
p6523
aVwhip
p6524
aVwhisper
p6525
aVwhisperphon
p6526
aVwhistl
p6527
aVwhite
p6528
aVwhiteboard
p6529
aVwhiz
p6530
aVwhole
p6531
aVwhose
p6532
aVwi
p6533
aVwick
p6534
aVwide
p6535
aVwiden
p6536
aVwider
p6537
aVwidescreen
p6538
aVwiesel
p6539
aVwiffl
p6540
aVwifi
p6541
aVwiggl
p6542
aVwiggli
p6543
aVwii
p6544
aVwiki
p6545
aVwikki
p6546
aVwil
p6547
aVwild
p6548
aVwilder
p6549
aVwildlif
p6550
aVwill
p6551
aVwillem
p6552
aVwilli
p6553
aVwilliam
p6554
aVwilling
p6555
aVwilloughbi
p6556
aVwilson
p6557
aVwimpi
p6558
aVwin
p6559
aVwind
p6560
aVwindow
p6561
aVwing
p6562
aVwinn
p6563
aVwinner
p6564
aVwinter
p6565
aVwipe
p6566
aVwire
p6567
aVwireless
p6568
aVwirelessli
p6569
aVwisconsin
p6570
aVwisdom
p6571
aVwise
p6572
aVwish
p6573
aVwit
p6574
aVwitch
p6575
aVwithin
p6576
aVwithout
p6577
aVwithstand
p6578
aVwizard
p6579
aVwobbl
p6580
aVwoefulli
p6581
aVwok
p6582
aVwolf
p6583
aVwolv
p6584
aVwoman
p6585
aVwomen
p6586
aVwon
p6587
aVwonder
p6588
aVwonderland
p6589
aVwondrou
p6590
aVwont
p6591
aVwood
p6592
aVwooden
p6593
aVwoodson
p6594
aVwoodwind
p6595
aVwoodwork
p6596
aVword
p6597
aVwordli
p6598
aVwork
p6599
aVworkabl
p6600
aVworkbench
p6601
aVworkbook
p6602
aVworker
p6603
aVworkforc
p6604
aVworkout
p6605
aVworkplac
p6606
aVworkroom
p6607
aVworksheet
p6608
aVworkshop
p6609
aVworkspac
p6610
aVworkstat
p6611
aVworld
p6612
aVworldli
p6613
aVworldwid
p6614
aVworm
p6615
aVworn
p6616
aVworri
p6617
aVwors
p6618
aVworst
p6619
aVworth
p6620
aVworthwhil
p6621
aVwould
p6622
aVwouldn
p6623
aVwow
p6624
aVwr
p6625
aVwrap
p6626
aVwrath
p6627
aVwrench
p6628
aVwrestl
p6629
aVwright
p6630
aVwringer
p6631
aVwrinkl
p6632
aVwrist
p6633
aVwristband
p6634
aVwrite
p6635
aVwriter
p6636
aVwritng
p6637
aVwritten
p6638
aVwrong
p6639
aVwrote
p6640
aVwwii
p6641
aVwww
p6642
aVwww2
p6643
aVxacto
p6644
aVxbox
p6645
aVxerox
p6646
aVxp
p6647
aVxray
p6648
aVxylophon
p6649
aVya
p6650
aVyacker
p6651
aVyahtze
p6652
aVyaker
p6653
aVyamaha
p6654
aVyard
p6655
aVyardstick
p6656
aVyarn
p6657
aVye
p6658
aVyear
p6659
aVyearbook
p6660
aVyearli
p6661
aVyeast
p6662
aVyellow
p6663
aVyet
p6664
aVyo
p6665
aVyoga
p6666
aVyogurt
p6667
aVyork
p6668
aVyosemit
p6669
aVyoung
p6670
aVyounger
p6671
aVyouth
p6672
aVyoutub
p6673
aVyummi
p6674
aVzebra
p6675
aVzen
p6676
aVzero
p6677
aVzinn
p6678
aVzip
p6679
aVziploc
p6680
aVziplock
p6681
aVzlata
p6682
aVzone
p6683
aVzoo
p6684
aVzoob
p6685
aVzoobook
p6686
aVzoolog
p6687
aVzoom
p6688
aVzora
p6689
aVzumba
p6690
a.